
checkmate.elf:     file format elf32-littlenios2
checkmate.elf
architecture: nios2:r1, flags 0x00000112:
EXEC_P, HAS_SYMS, D_PAGED
start address 0x00020020

Program Header:
    LOAD off    0x00001000 vaddr 0x00020000 paddr 0x00020000 align 2**12
         filesz 0x00000020 memsz 0x00000020 flags r-x
    LOAD off    0x00001020 vaddr 0x00020020 paddr 0x00020020 align 2**12
         filesz 0x00018a74 memsz 0x00018a74 flags r-x
    LOAD off    0x00019a94 vaddr 0x00038a94 paddr 0x00039364 align 2**12
         filesz 0x000008d0 memsz 0x000008d0 flags rw-
    LOAD off    0x0001ac34 vaddr 0x00039c34 paddr 0x00039c34 align 2**12
         filesz 0x00000000 memsz 0x00000060 flags rw-

Sections:
Idx Name          Size      VMA       LMA       File off  Algn
  0 .entry        00000020  00020000  00020000  00001000  2**5
                  CONTENTS, ALLOC, LOAD, READONLY, CODE
  1 .exceptions   00000000  00020020  00020020  0001a364  2**0
                  CONTENTS
  2 .text         000182e8  00020020  00020020  00001020  2**2
                  CONTENTS, ALLOC, LOAD, READONLY, CODE
  3 .rodata       0000078c  00038308  00038308  00019308  2**2
                  CONTENTS, ALLOC, LOAD, READONLY, DATA
  4 .rwdata       000008d0  00038a94  00039364  00019a94  2**2
                  CONTENTS, ALLOC, LOAD, DATA, SMALL_DATA
  5 .bss          00000060  00039c34  00039c34  0001ac34  2**2
                  ALLOC, SMALL_DATA
  6 .onchip_memory2_0 00000000  00039c94  00039c94  0001a364  2**0
                  CONTENTS
  7 .comment      00000023  00000000  00000000  0001a364  2**0
                  CONTENTS, READONLY
  8 .debug_aranges 00000ff8  00000000  00000000  0001a388  2**3
                  CONTENTS, READONLY, DEBUGGING
  9 .debug_info   0002e963  00000000  00000000  0001b380  2**0
                  CONTENTS, READONLY, DEBUGGING
 10 .debug_abbrev 0000aef5  00000000  00000000  00049ce3  2**0
                  CONTENTS, READONLY, DEBUGGING
 11 .debug_line   0000f411  00000000  00000000  00054bd8  2**0
                  CONTENTS, READONLY, DEBUGGING
 12 .debug_frame  00002454  00000000  00000000  00063fec  2**2
                  CONTENTS, READONLY, DEBUGGING
 13 .debug_str    00003919  00000000  00000000  00066440  2**0
                  CONTENTS, READONLY, DEBUGGING
 14 .debug_loc    00025563  00000000  00000000  00069d59  2**0
                  CONTENTS, READONLY, DEBUGGING
 15 .debug_alt_sim_info 00000010  00000000  00000000  0008f2bc  2**2
                  CONTENTS, READONLY, DEBUGGING
 16 .debug_ranges 000020d8  00000000  00000000  0008f2d0  2**3
                  CONTENTS, READONLY, DEBUGGING
 17 .thread_model 00000003  00000000  00000000  000943b9  2**0
                  CONTENTS, READONLY
 18 .cpu          0000000c  00000000  00000000  000943bc  2**0
                  CONTENTS, READONLY
 19 .qsys         00000001  00000000  00000000  000943c8  2**0
                  CONTENTS, READONLY
 20 .simulation_enabled 00000001  00000000  00000000  000943c9  2**0
                  CONTENTS, READONLY
 21 .stderr_dev   0000000b  00000000  00000000  000943ca  2**0
                  CONTENTS, READONLY
 22 .stdin_dev    0000000b  00000000  00000000  000943d5  2**0
                  CONTENTS, READONLY
 23 .stdout_dev   0000000b  00000000  00000000  000943e0  2**0
                  CONTENTS, READONLY
 24 .sopc_system_name 00000016  00000000  00000000  000943eb  2**0
                  CONTENTS, READONLY
 25 .quartus_project_dir 0000003a  00000000  00000000  00094401  2**0
                  CONTENTS, READONLY
 26 .sopcinfo     0006c26c  00000000  00000000  0009443b  2**0
                  CONTENTS, READONLY
SYMBOL TABLE:
00020000 l    d  .entry	00000000 .entry
00020020 l    d  .exceptions	00000000 .exceptions
00020020 l    d  .text	00000000 .text
00038308 l    d  .rodata	00000000 .rodata
00038a94 l    d  .rwdata	00000000 .rwdata
00039c34 l    d  .bss	00000000 .bss
00039c94 l    d  .onchip_memory2_0	00000000 .onchip_memory2_0
00000000 l    d  .comment	00000000 .comment
00000000 l    d  .debug_aranges	00000000 .debug_aranges
00000000 l    d  .debug_info	00000000 .debug_info
00000000 l    d  .debug_abbrev	00000000 .debug_abbrev
00000000 l    d  .debug_line	00000000 .debug_line
00000000 l    d  .debug_frame	00000000 .debug_frame
00000000 l    d  .debug_str	00000000 .debug_str
00000000 l    d  .debug_loc	00000000 .debug_loc
00000000 l    d  .debug_alt_sim_info	00000000 .debug_alt_sim_info
00000000 l    d  .debug_ranges	00000000 .debug_ranges
00000000 l    df *ABS*	00000000 ../checkmate_bsp//obj/HAL/src/crt0.o
00020058 l       .text	00000000 alt_after_alt_main
00000000 l    df *ABS*	00000000 hello_world.c
00039c5c l     O .bss	00000010 stack
00000000 l    df *ABS*	00000000 getc.c
00000000 l    df *ABS*	00000000 impure.c
00038a94 l     O .rwdata	00000424 impure_data
00000000 l    df *ABS*	00000000 printf.c
00000000 l    df *ABS*	00000000 putchar.c
00000000 l    df *ABS*	00000000 puts.c
00000000 l    df *ABS*	00000000 rget.c
00000000 l    df *ABS*	00000000 scanf.c
00000000 l    df *ABS*	00000000 strlen.c
00000000 l    df *ABS*	00000000 vfprintf.c
000383c6 l     O .rodata	00000010 zeroes.4404
00023bfc l     F .text	000000bc __sbprintf
000383d6 l     O .rodata	00000010 blanks.4403
00000000 l    df *ABS*	00000000 vfscanf.c
000383ee l     O .rodata	00000022 basefix.4359
00000000 l    df *ABS*	00000000 wsetup.c
00000000 l    df *ABS*	00000000 ctype_.c
00038511 l     O .rodata	00000180 _ctype_b
00000000 l    df *ABS*	00000000 dtoa.c
00025868 l     F .text	00000228 quorem
00000000 l    df *ABS*	00000000 fflush.c
00000000 l    df *ABS*	00000000 findfp.c
000273c0 l     F .text	00000008 __fp_unlock
000273d4 l     F .text	0000019c __sinit.part.1
00027570 l     F .text	00000008 __fp_lock
00000000 l    df *ABS*	00000000 fread.c
00000000 l    df *ABS*	00000000 mallocr.c
00000000 l    df *ABS*	00000000 fvwrite.c
00000000 l    df *ABS*	00000000 fwalk.c
00000000 l    df *ABS*	00000000 iswspace.c
00000000 l    df *ABS*	00000000 locale.c
00038ed8 l     O .rwdata	00000020 lc_ctype_charset
00038eb8 l     O .rwdata	00000020 lc_message_charset
00038ef8 l     O .rwdata	00000038 lconv
00000000 l    df *ABS*	00000000 makebuf.c
00000000 l    df *ABS*	00000000 mallocr.c
00000000 l    df *ABS*	00000000 mbrtowc.c
00000000 l    df *ABS*	00000000 mbtowc_r.c
00000000 l    df *ABS*	00000000 memchr.c
00000000 l    df *ABS*	00000000 memcpy.c
00000000 l    df *ABS*	00000000 memmove.c
00000000 l    df *ABS*	00000000 memset.c
00000000 l    df *ABS*	00000000 mprec.c
000386b0 l     O .rodata	0000000c p05.2768
00000000 l    df *ABS*	00000000 putc.c
00000000 l    df *ABS*	00000000 mallocr.c
00000000 l    df *ABS*	00000000 refill.c
0002ad90 l     F .text	0000001c lflush
00000000 l    df *ABS*	00000000 s_fpclassify.c
00000000 l    df *ABS*	00000000 sbrkr.c
00000000 l    df *ABS*	00000000 sccl.c
00000000 l    df *ABS*	00000000 sf_nan.c
00000000 l    df *ABS*	00000000 sprintf.c
00000000 l    df *ABS*	00000000 stdio.c
00000000 l    df *ABS*	00000000 strcmp.c
00000000 l    df *ABS*	00000000 strtod.c
0002b3fc l     F .text	00000064 sulp
000387e4 l     O .rodata	00000014 fpinan.2773
000387f8 l     O .rodata	00000014 fpi.2737
0003880c l     O .rodata	00000028 tinytens
00000000 l    df *ABS*	00000000 strtol.c
00000000 l    df *ABS*	00000000 strtoll_r.c
00000000 l    df *ABS*	00000000 strtoul.c
00000000 l    df *ABS*	00000000 strtoull_r.c
00000000 l    df *ABS*	00000000 vfprintf.c
00038834 l     O .rodata	00000010 zeroes.4389
00038844 l     O .rodata	00000010 blanks.4388
00000000 l    df *ABS*	00000000 ungetc.c
00000000 l    df *ABS*	00000000 vfprintf.c
0002fbc4 l     F .text	000000fc __sprint_r.part.0
00038854 l     O .rodata	00000010 zeroes.4349
00031200 l     F .text	000000bc __sbprintf
00038864 l     O .rodata	00000010 blanks.4348
00000000 l    df *ABS*	00000000 wbuf.c
00000000 l    df *ABS*	00000000 writer.c
00000000 l    df *ABS*	00000000 closer.c
00000000 l    df *ABS*	00000000 mallocr.c
00000000 l    df *ABS*	00000000 fclose.c
00000000 l    df *ABS*	00000000 fputwc.c
00000000 l    df *ABS*	00000000 fstatr.c
00000000 l    df *ABS*	00000000 gdtoa-gethex.c
0003190c l     F .text	00000100 rshift
00000000 l    df *ABS*	00000000 gdtoa-hexnan.c
00000000 l    df *ABS*	00000000 int_errno.c
00000000 l    df *ABS*	00000000 isattyr.c
00000000 l    df *ABS*	00000000 lseekr.c
00000000 l    df *ABS*	00000000 readr.c
00000000 l    df *ABS*	00000000 strncmp.c
00000000 l    df *ABS*	00000000 vfprintf.c
00038974 l     O .rodata	00000010 zeroes.4333
00038984 l     O .rodata	00000010 blanks.4332
00000000 l    df *ABS*	00000000 wcrtomb.c
00000000 l    df *ABS*	00000000 wctomb_r.c
00000000 l    df *ABS*	00000000 libgcc2.c
00000000 l    df *ABS*	00000000 libgcc2.c
00000000 l    df *ABS*	00000000 libgcc2.c
00000000 l    df *ABS*	00000000 libgcc2.c
00000000 l    df *ABS*	00000000 lib2-divmod.c
00000000 l    df *ABS*	00000000 lib2-mul.c
00000000 l    df *ABS*	00000000 eqsf2.c
00000000 l    df *ABS*	00000000 gesf2.c
00000000 l    df *ABS*	00000000 lesf2.c
00000000 l    df *ABS*	00000000 adddf3.c
00000000 l    df *ABS*	00000000 divdf3.c
00000000 l    df *ABS*	00000000 eqdf2.c
00000000 l    df *ABS*	00000000 gedf2.c
00000000 l    df *ABS*	00000000 ledf2.c
00000000 l    df *ABS*	00000000 muldf3.c
00000000 l    df *ABS*	00000000 subdf3.c
00000000 l    df *ABS*	00000000 fixdfsi.c
00000000 l    df *ABS*	00000000 floatsidf.c
00000000 l    df *ABS*	00000000 floatunsidf.c
00000000 l    df *ABS*	00000000 truncdfsf2.c
00000000 l    df *ABS*	00000000 libgcc2.c
00000000 l    df *ABS*	00000000 libgcc2.c
00000000 l    df *ABS*	00000000 alt_close.c
0003795c l     F .text	00000050 alt_get_errno
00000000 l    df *ABS*	00000000 alt_errno.c
00000000 l    df *ABS*	00000000 alt_fstat.c
00000000 l    df *ABS*	00000000 alt_isatty.c
00000000 l    df *ABS*	00000000 alt_load.c
00037a70 l     F .text	00000068 alt_load_section
00000000 l    df *ABS*	00000000 alt_lseek.c
00037b5c l     F .text	00000050 alt_get_errno
00000000 l    df *ABS*	00000000 alt_main.c
00000000 l    df *ABS*	00000000 alt_malloc_lock.c
00000000 l    df *ABS*	00000000 alt_read.c
00037c88 l     F .text	00000050 alt_get_errno
00000000 l    df *ABS*	00000000 alt_sbrk.c
0003935c l     O .rwdata	00000004 heap_end
00000000 l    df *ABS*	00000000 alt_write.c
00037df4 l     F .text	00000050 alt_get_errno
00000000 l    df *ABS*	00000000 alt_sys_init.c
00000000 l    df *ABS*	00000000 altera_avalon_jtag_uart_read.c
00000000 l    df *ABS*	00000000 altera_avalon_jtag_uart_write.c
00000000 l    df *ABS*	00000000 alt_dcache_flush_all.c
00000000 l    df *ABS*	00000000 alt_icache_flush_all.c
00000000 l    df *ABS*	00000000 altera_nios2_qsys_irq.c
00000000 l    df *ABS*	00000000 exit.c
00000000 l    df *ABS*	00000000 __call_atexit.c
00000000 l    df *ABS*	00000000 alt_exit.c
0002168c g     F .text	00000018 putchar
0002a54c g     F .text	00000074 _mprec_log10
00021490 g     F .text	00000090 popStack
0002a638 g     F .text	0000008c __any_on
000324c0 g     F .text	00000054 _isatty_r
000386bc g     O .rodata	00000028 __mprec_tinytens
00037bf0 g     F .text	00000050 alt_main
000216a4 g     F .text	000000c0 _puts_r
00032514 g     F .text	00000060 _lseek_r
00039364 g       *ABS*	00000000 __flash_rwdata_start
0002140c g     F .text	00000084 pushStack
00036190 g     F .text	00000088 .hidden __eqdf2
00039c94 g       *ABS*	00000000 __alt_heap_start
00021648 g     F .text	0000003c printf
00033c14 g     F .text	0000009c _wcrtomb_r
0002b2bc g     F .text	0000005c __sseek
00027720 g     F .text	00000010 __sinit
000312bc g     F .text	00000140 __swbuf_r
00028494 g     F .text	0000007c _setlocale_r
00027578 g     F .text	00000078 __sfmoreglue
0002fbac g     F .text	00000018 ungetc
00037c64 g     F .text	00000024 __malloc_unlock
0002b460 g     F .text	000015e4 _strtod_r
00029388 g     F .text	0000015c memmove
00027708 g     F .text	00000018 _cleanup
0002960c g     F .text	000000a8 _Balloc
00036218 g     F .text	000000dc .hidden __gtdf2
00020000 g     F .entry	0000000c __reset
00020020 g       *ABS*	00000000 __flash_exceptions_start
000318b0 g     F .text	0000005c _fstat_r
00039c4c g     O .bss	00000004 errno
000217ec g     F .text	00000014 __srget
000256ac g     F .text	0000001c __svfscanf
0002b238 g     F .text	00000008 __seofread
00032874 g     F .text	000013a0 ___svfiprintf_internal_r
00039c54 g     O .bss	00000004 alt_argv
00041338 g       *ABS*	00000000 _gp
00020b7c g     F .text	000002a8 checkMove
00021520 g     F .text	00000070 _getc_r
00021590 g     F .text	00000088 getc
00021684 g     F .text	00000008 _putchar_r
00029240 g     F .text	00000148 memcpy
0003225c g     F .text	00000264 __hexnan
000273c8 g     F .text	0000000c _cleanup_r
000375cc g     F .text	000000dc .hidden __floatsidf
000362f4 g     F .text	000000f4 .hidden __ltdf2
00021764 g     F .text	00000014 puts
00028fe4 g     F .text	000000d8 mbrtowc
0002af80 g     F .text	00000074 __fpclassifyd
000256c8 g     F .text	0000004c _vfscanf_r
0002a4a8 g     F .text	000000a4 __ratio
000311e4 g     F .text	0000001c __vfiprintf_internal
00037f38 g     F .text	000000ec altera_avalon_jtag_uart_read
00021618 g     F .text	00000030 _printf_r
00020000 g       *ABS*	00000000 __alt_mem_onchip_memory2_0
00034c34 g     F .text	00000064 .hidden __udivsi3
00037a34 g     F .text	0000003c isatty
00028464 g     F .text	00000030 iswspace
0003870c g     O .rodata	000000c8 __mprec_tens
00028510 g     F .text	0000000c __locale_charset
00034e4c g     F .text	000000c8 .hidden __lesf2
00033f08 g     F .text	00000074 .hidden __fixunsdfsi
00039c48 g     O .bss	00000004 __malloc_top_pad
0002d34c g     F .text	0000001c strtoul
00039344 g     O .rwdata	00000004 __mb_cur_max
00028540 g     F .text	0000000c _localeconv_r
0002d368 g     F .text	00000320 _strtoull_r
00029a40 g     F .text	0000003c __i2b
00027e14 g     F .text	000004c8 __sfvwrite_r
0002aff4 g     F .text	00000054 _sbrk_r
00032574 g     F .text	00000060 _read_r
000315a4 g     F .text	000000f0 _fclose_r
00027390 g     F .text	00000030 fflush
00039c44 g     O .bss	00000004 __malloc_max_sbrked_mem
00034f14 g     F .text	000008ac .hidden __adddf3
00034d18 g     F .text	00000078 .hidden __nesf2
0002a250 g     F .text	0000010c __b2d
00034578 g     F .text	000005c4 .hidden __umoddi3
00037bac g     F .text	00000044 lseek
00039338 g     O .rwdata	00000004 _global_impure_ptr
0002a82c g     F .text	00000564 _realloc_r
00039c94 g       *ABS*	00000000 __bss_end
00038874 g     O .rodata	00000100 __hexdig
00033f7c g     F .text	000005fc .hidden __udivdi3
0003180c g     F .text	00000024 _fputwc_r
000386e4 g     O .rodata	00000028 __mprec_bigtens
00029824 g     F .text	00000104 __s2b
000376a8 g     F .text	000000a8 .hidden __floatunsidf
00029f90 g     F .text	00000060 __mcmp
00027740 g     F .text	00000018 __fp_lock_all
0002cdb4 g     F .text	0000001c strtol
000380b8 g     F .text	00000020 alt_dcache_flush_all
00029928 g     F .text	00000068 __hi0bits
0003754c g     F .text	00000080 .hidden __fixdfsi
0002ca44 g     F .text	00000018 strtod
00039364 g       *ABS*	00000000 __ram_rwdata_end
00037e44 g     F .text	0000009c write
0002a6c4 g     F .text	000000a0 _putc_r
00034d90 g     F .text	000000bc .hidden __gtsf2
00038a94 g       *ABS*	00000000 __ram_rodata_end
00039360 g     O .rwdata	00000004 jtag_uart_0
000379e8 g     F .text	0000004c fstat
000362f4 g     F .text	000000f4 .hidden __ledf2
000201e8 g     F .text	00000284 boardToBuffer
00029d08 g     F .text	00000140 __pow5mult
0002fcd8 g     F .text	0000150c ___vfiprintf_internal_r
00039c3c g     O .bss	00000004 __nlocale_changed
00034c98 g     F .text	00000058 .hidden __umodsi3
0002183c g     F .text	00000030 _scanf_r
00020740 g     F .text	000001b4 setSpot
00039c94 g       *ABS*	00000000 end
00040000 g       *ABS*	00000000 __alt_stack_pointer
000378f8 g     F .text	00000064 .hidden __clzsi2
00038024 g     F .text	00000094 altera_avalon_jtag_uart_write
00027730 g     F .text	00000004 __sfp_lock_acquire
0002915c g     F .text	000000e4 memchr
00021904 g     F .text	000022dc ___vfprintf_internal_r
0002b120 g     F .text	00000058 _sprintf_r
00027b04 g     F .text	00000310 _free_r
0002851c g     F .text	00000010 __locale_mb_cur_max
000208f4 g     F .text	000001c4 initializeBoard
00038154 g     F .text	00000180 __call_exitprocs
00021778 g     F .text	00000074 __srget_r
00039c38 g     O .bss	00000004 __mlocale_changed
00039348 g     O .rwdata	00000004 __malloc_sbrk_base
00020020 g     F .text	0000003c _start
0002cdd0 g     F .text	00000304 _strtoll_r
00029e48 g     F .text	00000148 __lshift
00037cd8 g     F .text	0000006c read
00037f18 g     F .text	00000020 alt_sys_init
000326a4 g     F .text	000001d0 __ssprint_r
000325d4 g     F .text	000000d0 strncmp
00020e24 g     F .text	000005e8 jump
00029a7c g     F .text	0000028c __multiply
00034cf0 g     F .text	00000028 .hidden __mulsi3
00038a94 g       *ABS*	00000000 __ram_rwdata_start
00038308 g       *ABS*	00000000 __ram_rodata_start
00039c6c g     O .bss	00000028 __malloc_current_mallinfo
00034d18 g     F .text	00000078 .hidden __eqsf2
0002a35c g     F .text	0000014c __d2b
0002d0d4 g     F .text	00000278 _strtoul_r
00031474 g     F .text	00000054 _close_r
00039c94 g       *ABS*	00000000 __alt_stack_base
00025714 g     F .text	00000154 __swsetup_r
000357c0 g     F .text	000009d0 .hidden __divdf3
000275f0 g     F .text	00000118 __sfp
000205bc g     F .text	00000184 getSpot
0002a5c0 g     F .text	00000078 __copybits
00038f30 g     O .rwdata	00000408 __malloc_av_
0002773c g     F .text	00000004 __sinit_lock_release
000363e8 g     F .text	00000868 .hidden __muldf3
0002b1e4 g     F .text	00000054 __sread
000279ac g     F .text	00000034 fread
00037c40 g     F .text	00000024 __malloc_lock
00037d44 g     F .text	000000b0 sbrk
0002d688 g     F .text	000022bc ___svfprintf_internal_r
00027334 g     F .text	0000005c _fflush_r
000314c8 g     F .text	000000dc _calloc_r
00039c34 g       *ABS*	00000000 __bss_start
000294e4 g     F .text	00000128 memset
0002005c g     F .text	0000018c main
00039c58 g     O .bss	00000004 alt_envp
00039c40 g     O .bss	00000004 __malloc_max_total_mem
000313fc g     F .text	00000018 __swbuf
00034e4c g     F .text	000000c8 .hidden __ltsf2
00027770 g     F .text	0000023c _fread_r
0002b318 g     F .text	00000008 __sclose
00040000 g       *ABS*	00000000 __alt_heap_limit
00031694 g     F .text	00000014 fclose
0002cb5c g     F .text	00000258 _strtol_r
00037750 g     F .text	000001a8 .hidden __truncdfsf2
00025a90 g     F .text	00001688 _dtoa_r
0002872c g     F .text	0000080c _malloc_r
00033d70 g     F .text	00000030 __ascii_wctomb
00039358 g     O .rwdata	00000004 alt_errno
0002f944 g     F .text	000000d4 __submore
000282dc g     F .text	000000c4 _fwalk
00029100 g     F .text	0000005c _mbtowc_r
0002a764 g     F .text	000000c8 putc
00034b3c g     F .text	00000084 .hidden __divsi3
000279e0 g     F .text	00000124 _malloc_trim_r
0002b320 g     F .text	000000dc strcmp
00038308 g       *ABS*	00000000 __flash_rodata_start
0002046c g     F .text	00000150 printBoard
00036190 g     F .text	00000088 .hidden __nedf2
00037ee0 g     F .text	00000038 alt_irq_init
0002b178 g     F .text	0000006c sprintf
00038994 g     O .rodata	00000100 .hidden __clz_tab
00039c34 g     O .bss	00000004 _PathLocale
0002ca5c g     F .text	00000100 strtof
00034d90 g     F .text	000000bc .hidden __gesf2
00031414 g     F .text	00000060 _write_r
0002854c g     F .text	00000018 setlocale
00021800 g     F .text	0000003c scanf
0002b118 g     F .text	00000008 nanf
0003933c g     O .rwdata	00000004 _impure_ptr
00039c50 g     O .bss	00000004 alt_argc
00027118 g     F .text	0000021c __sflush_r
00028f38 g     F .text	000000ac _mbrtowc_r
00028538 g     F .text	00000008 __locale_cjk_lang
0002adac g     F .text	000001d4 __srefill_r
000290bc g     F .text	00000044 __ascii_mbtowc
0002a1ec g     F .text	00000064 __ulp
00027758 g     F .text	00000018 __fp_unlock_all
00020020 g       *ABS*	00000000 __ram_exceptions_start
00028564 g     F .text	0000000c localeconv
00020ab8 g     F .text	000000c4 movePiece
00039364 g       *ABS*	00000000 _edata
00039c94 g       *ABS*	00000000 _end
000316a8 g     F .text	00000164 __fputwc
00020020 g       *ABS*	00000000 __ram_exceptions_end
00025644 g     F .text	00000068 vfscanf
0002b240 g     F .text	0000007c __swrite
0003934c g     O .rwdata	00000004 __malloc_trim_threshold
000380f8 g     F .text	00000024 altera_nios2_qsys_irq_init
0002852c g     F .text	0000000c __locale_msgcharset
0003811c g     F .text	00000038 exit
000283a0 g     F .text	000000c4 _fwalk_reent
00029ff0 g     F .text	000001fc __mdiff
00034bc0 g     F .text	00000074 .hidden __modsi3
00039340 g     O .rwdata	00000004 __ctype_ptr__
00040000 g       *ABS*	00000000 __alt_data_end
00027734 g     F .text	00000004 __sfp_lock_release
0002b048 g     F .text	000000d0 __sccl
00038410 g     O .rodata	00000101 _ctype_
00039350 g     O .rwdata	00000004 __mbtowc
000382d4 g     F .text	00000034 _exit
00033dfc g     F .text	0000010c .hidden __muldi3
00028570 g     F .text	000001bc __smakebuf_r
0002186c g     F .text	00000098 strlen
00036218 g     F .text	000000dc .hidden __gedf2
00031a0c g     F .text	00000850 __gethex
00039354 g     O .rwdata	00000004 __wctomb
0002fcc0 g     F .text	00000018 __sprint_r
000380d8 g     F .text	00000020 alt_icache_flush_all
00023be0 g     F .text	0000001c __vfprintf_internal
00033da0 g     F .text	0000005c _wctomb_r
00036c50 g     F .text	000008fc .hidden __subdf3
00029990 g     F .text	000000b0 __lo0bits
00023cb8 g     F .text	0000198c __svfscanf_r
0002fa18 g     F .text	00000194 _ungetc_r
00033cb0 g     F .text	000000c0 wcrtomb
000379ac g     F .text	0000003c close
00037ad8 g     F .text	00000084 alt_load
00031830 g     F .text	00000080 fputwc
00027738 g     F .text	00000004 __sinit_lock_acquire
000296dc g     F .text	00000148 __multadd
000296b4 g     F .text	00000028 _Bfree



Disassembly of section .entry:

00020000 <__reset>:
 * Jump to the _start entry point in the .text section if reset code
 * is allowed or if optimizing for RTL simulation.
 */
#if defined(ALT_ALLOW_CODE_AT_RESET) || defined(ALT_SIM_OPTIMIZE)
    /* Jump to the _start entry point in the .text section. */
    movhi r1, %hi(_start)
   20000:	004000b4 	movhi	at,2
    ori r1, r1, %lo(_start)
   20004:	08400814 	ori	at,at,32
    jmp r1
   20008:	0800683a 	jmp	at
	...

Disassembly of section .text:

00020020 <_start>:

    /*
     * Now that the caches are initialized, set up the stack pointer and global pointer.
     * The values provided by the linker are assumed to be correctly aligned.
     */
    movhi sp, %hi(__alt_stack_pointer)
   20020:	06c00134 	movhi	sp,4
    ori sp, sp, %lo(__alt_stack_pointer)
   20024:	dec00014 	ori	sp,sp,0
    movhi gp, %hi(_gp)
   20028:	06800134 	movhi	gp,4
    ori gp, gp, %lo(_gp)
   2002c:	d684ce14 	ori	gp,gp,4920
 */
#ifndef ALT_SIM_OPTIMIZE
    /* Log that the BSS is about to be cleared. */
    ALT_LOG_PUTS(alt_log_msg_bss)

    movhi r2, %hi(__bss_start)
   20030:	008000f4 	movhi	r2,3
    ori r2, r2, %lo(__bss_start)
   20034:	10a70d14 	ori	r2,r2,39988

    movhi r3, %hi(__bss_end)
   20038:	00c000f4 	movhi	r3,3
    ori r3, r3, %lo(__bss_end)
   2003c:	18e72514 	ori	r3,r3,40084

    beq r2, r3, 1f
   20040:	10c00326 	beq	r2,r3,20050 <_start+0x30>

0:
    stw zero, (r2)
   20044:	10000015 	stw	zero,0(r2)
    addi r2, r2, 4
   20048:	10800104 	addi	r2,r2,4
    bltu r2, r3, 0b
   2004c:	10fffd36 	bltu	r2,r3,20044 <_gp+0xfffded0c>
     * section aren't defined until alt_load() has been called).
     */
    mov   et, zero
#endif

    call alt_load
   20050:	0037ad80 	call	37ad8 <alt_load>

    /* Log that alt_main is about to be called. */
    ALT_LOG_PUTS(alt_log_msg_alt_main)

    /* Call the C entry point. It should never return. */
    call alt_main
   20054:	0037bf00 	call	37bf0 <alt_main>

00020058 <alt_after_alt_main>:

    /* Wait in infinite loop in case alt_main does return. */
alt_after_alt_main:
    br alt_after_alt_main
   20058:	003fff06 	br	20058 <_gp+0xfffded20>

0002005c <main>:

void boardToBuffer(Board b);

static Stack stack;

int main(int argc, char **argv) {
   2005c:	deffee04 	addi	sp,sp,-72
   20060:	dfc01115 	stw	ra,68(sp)
   20064:	df001015 	stw	fp,64(sp)
   20068:	df001004 	addi	fp,sp,64
   2006c:	e13ffe15 	stw	r4,-8(fp)
   20070:	e17fff15 	stw	r5,-4(fp)
  Board board;
  initializeBoard(board);
   20074:	e0bff204 	addi	r2,fp,-56
   20078:	1009883a 	mov	r4,r2
   2007c:	00208f40 	call	208f4 <initializeBoard>
  /*setSpot(board, 4, 4, 'r');
  setSpot(board, 5, 5, 'G');
  setSpot(board, 6, 4, 'r');
  setSpot(board, 5, 1, 'O');*/
  printBoard(board);
   20080:	e0bff204 	addi	r2,fp,-56
   20084:	1009883a 	mov	r4,r2
   20088:	002046c0 	call	2046c <printBoard>
  int x = -1;
   2008c:	00bfffc4 	movi	r2,-1
   20090:	e0bffa15 	stw	r2,-24(fp)
  int y = -1;
   20094:	00bfffc4 	movi	r2,-1
   20098:	e0bffb15 	stw	r2,-20(fp)
  int nx = -1;
   2009c:	00bfffc4 	movi	r2,-1
   200a0:	e0bffc15 	stw	r2,-16(fp)
  int ny = -1;
   200a4:	00bfffc4 	movi	r2,-1
   200a8:	e0bffd15 	stw	r2,-12(fp)
  boardToBuffer(board);
   200ac:	e0bff204 	addi	r2,fp,-56
   200b0:	1009883a 	mov	r4,r2
   200b4:	00201e80 	call	201e8 <boardToBuffer>
  while (1) {
    int res = 0;
   200b8:	e03ff115 	stw	zero,-60(fp)
    while (!res) {
   200bc:	00004406 	br	201d0 <main+0x174>
      printf("Start X: ");
   200c0:	01000134 	movhi	r4,4
   200c4:	2120c204 	addi	r4,r4,-31992
   200c8:	00216480 	call	21648 <printf>
      scanf("%d", &x);
   200cc:	e0bffa04 	addi	r2,fp,-24
   200d0:	100b883a 	mov	r5,r2
   200d4:	01000134 	movhi	r4,4
   200d8:	2120c504 	addi	r4,r4,-31980
   200dc:	00218000 	call	21800 <scanf>
      getchar();
   200e0:	00800134 	movhi	r2,4
   200e4:	10a4cf04 	addi	r2,r2,-27844
   200e8:	10800017 	ldw	r2,0(r2)
   200ec:	10800117 	ldw	r2,4(r2)
   200f0:	1009883a 	mov	r4,r2
   200f4:	00215900 	call	21590 <getc>
      printf("Start Y: ");
   200f8:	01000134 	movhi	r4,4
   200fc:	2120c604 	addi	r4,r4,-31976
   20100:	00216480 	call	21648 <printf>
      scanf("%d", &y);
   20104:	e0bffb04 	addi	r2,fp,-20
   20108:	100b883a 	mov	r5,r2
   2010c:	01000134 	movhi	r4,4
   20110:	2120c504 	addi	r4,r4,-31980
   20114:	00218000 	call	21800 <scanf>
      getchar();
   20118:	00800134 	movhi	r2,4
   2011c:	10a4cf04 	addi	r2,r2,-27844
   20120:	10800017 	ldw	r2,0(r2)
   20124:	10800117 	ldw	r2,4(r2)
   20128:	1009883a 	mov	r4,r2
   2012c:	00215900 	call	21590 <getc>
      printf("Final X: ");
   20130:	01000134 	movhi	r4,4
   20134:	2120c904 	addi	r4,r4,-31964
   20138:	00216480 	call	21648 <printf>
      scanf("%d", &nx);
   2013c:	e0bffc04 	addi	r2,fp,-16
   20140:	100b883a 	mov	r5,r2
   20144:	01000134 	movhi	r4,4
   20148:	2120c504 	addi	r4,r4,-31980
   2014c:	00218000 	call	21800 <scanf>
      getchar();
   20150:	00800134 	movhi	r2,4
   20154:	10a4cf04 	addi	r2,r2,-27844
   20158:	10800017 	ldw	r2,0(r2)
   2015c:	10800117 	ldw	r2,4(r2)
   20160:	1009883a 	mov	r4,r2
   20164:	00215900 	call	21590 <getc>
      printf("Final Y: ");
   20168:	01000134 	movhi	r4,4
   2016c:	2120cc04 	addi	r4,r4,-31952
   20170:	00216480 	call	21648 <printf>
      scanf("%d", &ny);
   20174:	e0bffd04 	addi	r2,fp,-12
   20178:	100b883a 	mov	r5,r2
   2017c:	01000134 	movhi	r4,4
   20180:	2120c504 	addi	r4,r4,-31980
   20184:	00218000 	call	21800 <scanf>
      getchar();
   20188:	00800134 	movhi	r2,4
   2018c:	10a4cf04 	addi	r2,r2,-27844
   20190:	10800017 	ldw	r2,0(r2)
   20194:	10800117 	ldw	r2,4(r2)
   20198:	1009883a 	mov	r4,r2
   2019c:	00215900 	call	21590 <getc>
      res = movePiece(board, x, y, nx, ny);
   201a0:	e13ffa17 	ldw	r4,-24(fp)
   201a4:	e17ffb17 	ldw	r5,-20(fp)
   201a8:	e1bffc17 	ldw	r6,-16(fp)
   201ac:	e0bffd17 	ldw	r2,-12(fp)
   201b0:	e0fff204 	addi	r3,fp,-56
   201b4:	d8800015 	stw	r2,0(sp)
   201b8:	300f883a 	mov	r7,r6
   201bc:	280d883a 	mov	r6,r5
   201c0:	200b883a 	mov	r5,r4
   201c4:	1809883a 	mov	r4,r3
   201c8:	0020ab80 	call	20ab8 <movePiece>
   201cc:	e0bff115 	stw	r2,-60(fp)
  int nx = -1;
  int ny = -1;
  boardToBuffer(board);
  while (1) {
    int res = 0;
    while (!res) {
   201d0:	e0bff117 	ldw	r2,-60(fp)
   201d4:	103fba26 	beq	r2,zero,200c0 <_gp+0xfffded88>
      printf("Final Y: ");
      scanf("%d", &ny);
      getchar();
      res = movePiece(board, x, y, nx, ny);
    }
    printBoard(board);
   201d8:	e0bff204 	addi	r2,fp,-56
   201dc:	1009883a 	mov	r4,r2
   201e0:	002046c0 	call	2046c <printBoard>
  }
   201e4:	003fb406 	br	200b8 <_gp+0xfffded80>

000201e8 <boardToBuffer>:
  return 0;
}

void boardToBuffer(Board b) {
   201e8:	defffc04 	addi	sp,sp,-16
   201ec:	dfc00315 	stw	ra,12(sp)
   201f0:	df000215 	stw	fp,8(sp)
   201f4:	df000204 	addi	fp,sp,8
   201f8:	e13fff15 	stw	r4,-4(fp)
	int x;
	for (x = 0; x < BOARD_SIZE / 2; x++) {
   201fc:	e03ffe15 	stw	zero,-8(fp)
   20200:	00005206 	br	2034c <boardToBuffer+0x164>
		*(row0 + x) = b[7][x];
   20204:	e0fffe17 	ldw	r3,-8(fp)
   20208:	00800134 	movhi	r2,4
   2020c:	10840004 	addi	r2,r2,4096
   20210:	1885883a 	add	r2,r3,r2
   20214:	e0ffff17 	ldw	r3,-4(fp)
   20218:	19000704 	addi	r4,r3,28
   2021c:	e0fffe17 	ldw	r3,-8(fp)
   20220:	20c7883a 	add	r3,r4,r3
   20224:	18c00003 	ldbu	r3,0(r3)
   20228:	10c00005 	stb	r3,0(r2)
		*(row1 + x) = b[6][x];
   2022c:	e0fffe17 	ldw	r3,-8(fp)
   20230:	00800134 	movhi	r2,4
   20234:	10840804 	addi	r2,r2,4128
   20238:	1885883a 	add	r2,r3,r2
   2023c:	e0ffff17 	ldw	r3,-4(fp)
   20240:	19000604 	addi	r4,r3,24
   20244:	e0fffe17 	ldw	r3,-8(fp)
   20248:	20c7883a 	add	r3,r4,r3
   2024c:	18c00003 	ldbu	r3,0(r3)
   20250:	10c00005 	stb	r3,0(r2)
		*(row2 + x) = b[5][x];
   20254:	e0fffe17 	ldw	r3,-8(fp)
   20258:	00800134 	movhi	r2,4
   2025c:	10841004 	addi	r2,r2,4160
   20260:	1885883a 	add	r2,r3,r2
   20264:	e0ffff17 	ldw	r3,-4(fp)
   20268:	19000504 	addi	r4,r3,20
   2026c:	e0fffe17 	ldw	r3,-8(fp)
   20270:	20c7883a 	add	r3,r4,r3
   20274:	18c00003 	ldbu	r3,0(r3)
   20278:	10c00005 	stb	r3,0(r2)
		*(row3 + x) = b[4][x];
   2027c:	e0fffe17 	ldw	r3,-8(fp)
   20280:	00800134 	movhi	r2,4
   20284:	10841804 	addi	r2,r2,4192
   20288:	1885883a 	add	r2,r3,r2
   2028c:	e0ffff17 	ldw	r3,-4(fp)
   20290:	19000404 	addi	r4,r3,16
   20294:	e0fffe17 	ldw	r3,-8(fp)
   20298:	20c7883a 	add	r3,r4,r3
   2029c:	18c00003 	ldbu	r3,0(r3)
   202a0:	10c00005 	stb	r3,0(r2)
		*(row4 + x) = b[3][x];
   202a4:	e0fffe17 	ldw	r3,-8(fp)
   202a8:	00800134 	movhi	r2,4
   202ac:	10842004 	addi	r2,r2,4224
   202b0:	1885883a 	add	r2,r3,r2
   202b4:	e0ffff17 	ldw	r3,-4(fp)
   202b8:	19000304 	addi	r4,r3,12
   202bc:	e0fffe17 	ldw	r3,-8(fp)
   202c0:	20c7883a 	add	r3,r4,r3
   202c4:	18c00003 	ldbu	r3,0(r3)
   202c8:	10c00005 	stb	r3,0(r2)
		*(row5 + x) = b[2][x];
   202cc:	e0fffe17 	ldw	r3,-8(fp)
   202d0:	00800134 	movhi	r2,4
   202d4:	10842804 	addi	r2,r2,4256
   202d8:	1885883a 	add	r2,r3,r2
   202dc:	e0ffff17 	ldw	r3,-4(fp)
   202e0:	19000204 	addi	r4,r3,8
   202e4:	e0fffe17 	ldw	r3,-8(fp)
   202e8:	20c7883a 	add	r3,r4,r3
   202ec:	18c00003 	ldbu	r3,0(r3)
   202f0:	10c00005 	stb	r3,0(r2)
		*(row6 + x) = b[1][x];
   202f4:	e0fffe17 	ldw	r3,-8(fp)
   202f8:	00800134 	movhi	r2,4
   202fc:	10843004 	addi	r2,r2,4288
   20300:	1885883a 	add	r2,r3,r2
   20304:	e0ffff17 	ldw	r3,-4(fp)
   20308:	19000104 	addi	r4,r3,4
   2030c:	e0fffe17 	ldw	r3,-8(fp)
   20310:	20c7883a 	add	r3,r4,r3
   20314:	18c00003 	ldbu	r3,0(r3)
   20318:	10c00005 	stb	r3,0(r2)
		*(row7 + x) = b[0][x];
   2031c:	e0fffe17 	ldw	r3,-8(fp)
   20320:	00800134 	movhi	r2,4
   20324:	10843804 	addi	r2,r2,4320
   20328:	1885883a 	add	r2,r3,r2
   2032c:	e13fff17 	ldw	r4,-4(fp)
   20330:	e0fffe17 	ldw	r3,-8(fp)
   20334:	20c7883a 	add	r3,r4,r3
   20338:	18c00003 	ldbu	r3,0(r3)
   2033c:	10c00005 	stb	r3,0(r2)
  return 0;
}

void boardToBuffer(Board b) {
	int x;
	for (x = 0; x < BOARD_SIZE / 2; x++) {
   20340:	e0bffe17 	ldw	r2,-8(fp)
   20344:	10800044 	addi	r2,r2,1
   20348:	e0bffe15 	stw	r2,-8(fp)
   2034c:	e0bffe17 	ldw	r2,-8(fp)
   20350:	10800110 	cmplti	r2,r2,4
   20354:	103fab1e 	bne	r2,zero,20204 <_gp+0xfffdeecc>
		*(row4 + x) = b[3][x];
		*(row5 + x) = b[2][x];
		*(row6 + x) = b[1][x];
		*(row7 + x) = b[0][x];
	}
	printf("%x \n", *(int*)row7);
   20358:	00800134 	movhi	r2,4
   2035c:	10843804 	addi	r2,r2,4320
   20360:	10800017 	ldw	r2,0(r2)
   20364:	100b883a 	mov	r5,r2
   20368:	01000134 	movhi	r4,4
   2036c:	2120cf04 	addi	r4,r4,-31940
   20370:	00216480 	call	21648 <printf>
	printf("%x \n", *(int*)row6);
   20374:	00800134 	movhi	r2,4
   20378:	10843004 	addi	r2,r2,4288
   2037c:	10800017 	ldw	r2,0(r2)
   20380:	100b883a 	mov	r5,r2
   20384:	01000134 	movhi	r4,4
   20388:	2120cf04 	addi	r4,r4,-31940
   2038c:	00216480 	call	21648 <printf>
	printf("%x \n", *(int*)row5);
   20390:	00800134 	movhi	r2,4
   20394:	10842804 	addi	r2,r2,4256
   20398:	10800017 	ldw	r2,0(r2)
   2039c:	100b883a 	mov	r5,r2
   203a0:	01000134 	movhi	r4,4
   203a4:	2120cf04 	addi	r4,r4,-31940
   203a8:	00216480 	call	21648 <printf>
	printf("%x \n", *(int*)row4);
   203ac:	00800134 	movhi	r2,4
   203b0:	10842004 	addi	r2,r2,4224
   203b4:	10800017 	ldw	r2,0(r2)
   203b8:	100b883a 	mov	r5,r2
   203bc:	01000134 	movhi	r4,4
   203c0:	2120cf04 	addi	r4,r4,-31940
   203c4:	00216480 	call	21648 <printf>
	printf("%x \n", *(int*)row3);
   203c8:	00800134 	movhi	r2,4
   203cc:	10841804 	addi	r2,r2,4192
   203d0:	10800017 	ldw	r2,0(r2)
   203d4:	100b883a 	mov	r5,r2
   203d8:	01000134 	movhi	r4,4
   203dc:	2120cf04 	addi	r4,r4,-31940
   203e0:	00216480 	call	21648 <printf>
	printf("%x \n", *(int*)row2);
   203e4:	00800134 	movhi	r2,4
   203e8:	10841004 	addi	r2,r2,4160
   203ec:	10800017 	ldw	r2,0(r2)
   203f0:	100b883a 	mov	r5,r2
   203f4:	01000134 	movhi	r4,4
   203f8:	2120cf04 	addi	r4,r4,-31940
   203fc:	00216480 	call	21648 <printf>
	printf("%x \n", *(int*)row1);
   20400:	00800134 	movhi	r2,4
   20404:	10840804 	addi	r2,r2,4128
   20408:	10800017 	ldw	r2,0(r2)
   2040c:	100b883a 	mov	r5,r2
   20410:	01000134 	movhi	r4,4
   20414:	2120cf04 	addi	r4,r4,-31940
   20418:	00216480 	call	21648 <printf>
	printf("%x \n", *(int*)row0);
   2041c:	00800134 	movhi	r2,4
   20420:	10840004 	addi	r2,r2,4096
   20424:	10800017 	ldw	r2,0(r2)
   20428:	100b883a 	mov	r5,r2
   2042c:	01000134 	movhi	r4,4
   20430:	2120cf04 	addi	r4,r4,-31940
   20434:	00216480 	call	21648 <printf>
	*sendData = 1;
   20438:	00800134 	movhi	r2,4
   2043c:	10844804 	addi	r2,r2,4384
   20440:	00c00044 	movi	r3,1
   20444:	10c00005 	stb	r3,0(r2)
	*sendData = 0;
   20448:	00800134 	movhi	r2,4
   2044c:	10844804 	addi	r2,r2,4384
   20450:	10000005 	stb	zero,0(r2)
}
   20454:	0001883a 	nop
   20458:	e037883a 	mov	sp,fp
   2045c:	dfc00117 	ldw	ra,4(sp)
   20460:	df000017 	ldw	fp,0(sp)
   20464:	dec00204 	addi	sp,sp,8
   20468:	f800283a 	ret

0002046c <printBoard>:

void printBoard(Board b) {
   2046c:	defffa04 	addi	sp,sp,-24
   20470:	dfc00515 	stw	ra,20(sp)
   20474:	df000415 	stw	fp,16(sp)
   20478:	df000404 	addi	fp,sp,16
   2047c:	e13fff15 	stw	r4,-4(fp)
  printf("  ");
   20480:	01000134 	movhi	r4,4
   20484:	2120d104 	addi	r4,r4,-31932
   20488:	00216480 	call	21648 <printf>
  int x, y;
  for (x = 0; x < BOARD_SIZE; x++) {
   2048c:	e03ffc15 	stw	zero,-16(fp)
   20490:	00000706 	br	204b0 <printBoard+0x44>
    printf("%d ", x);
   20494:	e17ffc17 	ldw	r5,-16(fp)
   20498:	01000134 	movhi	r4,4
   2049c:	2120d204 	addi	r4,r4,-31928
   204a0:	00216480 	call	21648 <printf>
}

void printBoard(Board b) {
  printf("  ");
  int x, y;
  for (x = 0; x < BOARD_SIZE; x++) {
   204a4:	e0bffc17 	ldw	r2,-16(fp)
   204a8:	10800044 	addi	r2,r2,1
   204ac:	e0bffc15 	stw	r2,-16(fp)
   204b0:	e0bffc17 	ldw	r2,-16(fp)
   204b4:	10800210 	cmplti	r2,r2,8
   204b8:	103ff61e 	bne	r2,zero,20494 <_gp+0xfffdf15c>
    printf("%d ", x);
  }
  printf("\n");
   204bc:	01000284 	movi	r4,10
   204c0:	002168c0 	call	2168c <putchar>
  for (y = 0; y < BOARD_SIZE; y++) {
   204c4:	e03ffd15 	stw	zero,-12(fp)
   204c8:	00003306 	br	20598 <printBoard+0x12c>
    printf("%d ", y);
   204cc:	e17ffd17 	ldw	r5,-12(fp)
   204d0:	01000134 	movhi	r4,4
   204d4:	2120d204 	addi	r4,r4,-31928
   204d8:	00216480 	call	21648 <printf>
    for (x = 0; x < BOARD_SIZE; x++) {
   204dc:	e03ffc15 	stw	zero,-16(fp)
   204e0:	00002506 	br	20578 <printBoard+0x10c>
      char piece = getSpot(b, x, y);
   204e4:	e1bffd17 	ldw	r6,-12(fp)
   204e8:	e17ffc17 	ldw	r5,-16(fp)
   204ec:	e13fff17 	ldw	r4,-4(fp)
   204f0:	00205bc0 	call	205bc <getSpot>
   204f4:	e0bffe05 	stb	r2,-8(fp)
      if (piece == 'r' || piece == 'R') {
   204f8:	e0bffe07 	ldb	r2,-8(fp)
   204fc:	10801ca0 	cmpeqi	r2,r2,114
   20500:	1000031e 	bne	r2,zero,20510 <printBoard+0xa4>
   20504:	e0bffe07 	ldb	r2,-8(fp)
   20508:	10801498 	cmpnei	r2,r2,82
   2050c:	1000061e 	bne	r2,zero,20528 <printBoard+0xbc>
	printf(RED "%c " RESET, piece);
   20510:	e0bffe07 	ldb	r2,-8(fp)
   20514:	100b883a 	mov	r5,r2
   20518:	01000134 	movhi	r4,4
   2051c:	2120d304 	addi	r4,r4,-31924
   20520:	00216480 	call	21648 <printf>
   20524:	00001106 	br	2056c <printBoard+0x100>
      } else if (piece == 'g' || piece == 'G') {
   20528:	e0bffe07 	ldb	r2,-8(fp)
   2052c:	108019e0 	cmpeqi	r2,r2,103
   20530:	1000031e 	bne	r2,zero,20540 <printBoard+0xd4>
   20534:	e0bffe07 	ldb	r2,-8(fp)
   20538:	108011d8 	cmpnei	r2,r2,71
   2053c:	1000061e 	bne	r2,zero,20558 <printBoard+0xec>
	printf(GREEN "%c " RESET, piece);
   20540:	e0bffe07 	ldb	r2,-8(fp)
   20544:	100b883a 	mov	r5,r2
   20548:	01000134 	movhi	r4,4
   2054c:	2120d304 	addi	r4,r4,-31924
   20550:	00216480 	call	21648 <printf>
   20554:	00000506 	br	2056c <printBoard+0x100>
      } else {
	printf("%c ", piece);
   20558:	e0bffe07 	ldb	r2,-8(fp)
   2055c:	100b883a 	mov	r5,r2
   20560:	01000134 	movhi	r4,4
   20564:	2120d304 	addi	r4,r4,-31924
   20568:	00216480 	call	21648 <printf>
    printf("%d ", x);
  }
  printf("\n");
  for (y = 0; y < BOARD_SIZE; y++) {
    printf("%d ", y);
    for (x = 0; x < BOARD_SIZE; x++) {
   2056c:	e0bffc17 	ldw	r2,-16(fp)
   20570:	10800044 	addi	r2,r2,1
   20574:	e0bffc15 	stw	r2,-16(fp)
   20578:	e0bffc17 	ldw	r2,-16(fp)
   2057c:	10800210 	cmplti	r2,r2,8
   20580:	103fd81e 	bne	r2,zero,204e4 <_gp+0xfffdf1ac>
	printf(GREEN "%c " RESET, piece);
      } else {
	printf("%c ", piece);
      }
    }
    printf("\n");
   20584:	01000284 	movi	r4,10
   20588:	002168c0 	call	2168c <putchar>
  int x, y;
  for (x = 0; x < BOARD_SIZE; x++) {
    printf("%d ", x);
  }
  printf("\n");
  for (y = 0; y < BOARD_SIZE; y++) {
   2058c:	e0bffd17 	ldw	r2,-12(fp)
   20590:	10800044 	addi	r2,r2,1
   20594:	e0bffd15 	stw	r2,-12(fp)
   20598:	e0bffd17 	ldw	r2,-12(fp)
   2059c:	10800210 	cmplti	r2,r2,8
   205a0:	103fca1e 	bne	r2,zero,204cc <_gp+0xfffdf194>
	printf("%c ", piece);
      }
    }
    printf("\n");
  }
}
   205a4:	0001883a 	nop
   205a8:	e037883a 	mov	sp,fp
   205ac:	dfc00117 	ldw	ra,4(sp)
   205b0:	df000017 	ldw	fp,0(sp)
   205b4:	dec00204 	addi	sp,sp,8
   205b8:	f800283a 	ret

000205bc <getSpot>:

char getSpot(Board b, int x, int y) {
   205bc:	defffc04 	addi	sp,sp,-16
   205c0:	df000315 	stw	fp,12(sp)
   205c4:	df000304 	addi	fp,sp,12
   205c8:	e13ffd15 	stw	r4,-12(fp)
   205cc:	e17ffe15 	stw	r5,-8(fp)
   205d0:	e1bfff15 	stw	r6,-4(fp)
  if (x % 2 == 0) {
   205d4:	e0bffe17 	ldw	r2,-8(fp)
   205d8:	1080004c 	andi	r2,r2,1
   205dc:	10002b1e 	bne	r2,zero,2068c <getSpot+0xd0>
    switch (b[y][x / 2] >> 4) {
   205e0:	e0bfff17 	ldw	r2,-4(fp)
   205e4:	1085883a 	add	r2,r2,r2
   205e8:	1085883a 	add	r2,r2,r2
   205ec:	1007883a 	mov	r3,r2
   205f0:	e0bffd17 	ldw	r2,-12(fp)
   205f4:	10c7883a 	add	r3,r2,r3
   205f8:	e0bffe17 	ldw	r2,-8(fp)
   205fc:	1008d7fa 	srli	r4,r2,31
   20600:	2085883a 	add	r2,r4,r2
   20604:	1005d07a 	srai	r2,r2,1
   20608:	1885883a 	add	r2,r3,r2
   2060c:	10800003 	ldbu	r2,0(r2)
   20610:	10803fcc 	andi	r2,r2,255
   20614:	1004d13a 	srli	r2,r2,4
   20618:	10803fcc 	andi	r2,r2,255
   2061c:	10c00228 	cmpgeui	r3,r2,8
   20620:	1800181e 	bne	r3,zero,20684 <getSpot+0xc8>
   20624:	100690ba 	slli	r3,r2,2
   20628:	008000b4 	movhi	r2,2
   2062c:	10818f04 	addi	r2,r2,1596
   20630:	1885883a 	add	r2,r3,r2
   20634:	10800017 	ldw	r2,0(r2)
   20638:	1000683a 	jmp	r2
   2063c:	0002065c 	xori	zero,zero,2073
   20640:	0002066c 	andhi	zero,zero,2073
   20644:	00020684 	movi	zero,2074
   20648:	00020664 	muli	zero,zero,2073
   2064c:	00020684 	movi	zero,2074
   20650:	0002067c 	xorhi	zero,zero,2073
   20654:	00020684 	movi	zero,2074
   20658:	00020674 	movhi	zero,2073
    case 0: return 'O'; break;
   2065c:	008013c4 	movi	r2,79
   20660:	00003306 	br	20730 <getSpot+0x174>
    case 3: return 'r'; break;
   20664:	00801c84 	movi	r2,114
   20668:	00003106 	br	20730 <getSpot+0x174>
    case 1: return 'g'; break;
   2066c:	008019c4 	movi	r2,103
   20670:	00002f06 	br	20730 <getSpot+0x174>
    case 7: return 'R'; break;
   20674:	00801484 	movi	r2,82
   20678:	00002d06 	br	20730 <getSpot+0x174>
    case 5: return 'G'; break;
   2067c:	008011c4 	movi	r2,71
   20680:	00002b06 	br	20730 <getSpot+0x174>
    default: return 'O'; break;
   20684:	008013c4 	movi	r2,79
   20688:	00002906 	br	20730 <getSpot+0x174>
    }
  } else {
    switch (b[y][x / 2] & 0x0F) {
   2068c:	e0bfff17 	ldw	r2,-4(fp)
   20690:	1085883a 	add	r2,r2,r2
   20694:	1085883a 	add	r2,r2,r2
   20698:	1007883a 	mov	r3,r2
   2069c:	e0bffd17 	ldw	r2,-12(fp)
   206a0:	10c7883a 	add	r3,r2,r3
   206a4:	e0bffe17 	ldw	r2,-8(fp)
   206a8:	1008d7fa 	srli	r4,r2,31
   206ac:	2085883a 	add	r2,r4,r2
   206b0:	1005d07a 	srai	r2,r2,1
   206b4:	1885883a 	add	r2,r3,r2
   206b8:	10800003 	ldbu	r2,0(r2)
   206bc:	10803fcc 	andi	r2,r2,255
   206c0:	108003cc 	andi	r2,r2,15
   206c4:	10c00228 	cmpgeui	r3,r2,8
   206c8:	1800181e 	bne	r3,zero,2072c <getSpot+0x170>
   206cc:	100690ba 	slli	r3,r2,2
   206d0:	008000b4 	movhi	r2,2
   206d4:	1081b904 	addi	r2,r2,1764
   206d8:	1885883a 	add	r2,r3,r2
   206dc:	10800017 	ldw	r2,0(r2)
   206e0:	1000683a 	jmp	r2
   206e4:	00020704 	movi	zero,2076
   206e8:	00020714 	movui	zero,2076
   206ec:	0002072c 	andhi	zero,zero,2076
   206f0:	0002070c 	andi	zero,zero,2076
   206f4:	0002072c 	andhi	zero,zero,2076
   206f8:	00020724 	muli	zero,zero,2076
   206fc:	0002072c 	andhi	zero,zero,2076
   20700:	0002071c 	xori	zero,zero,2076
    case 0: return 'O'; break;
   20704:	008013c4 	movi	r2,79
   20708:	00000906 	br	20730 <getSpot+0x174>
    case 3: return 'r'; break;
   2070c:	00801c84 	movi	r2,114
   20710:	00000706 	br	20730 <getSpot+0x174>
    case 1: return 'g'; break;
   20714:	008019c4 	movi	r2,103
   20718:	00000506 	br	20730 <getSpot+0x174>
    case 7: return 'R'; break;
   2071c:	00801484 	movi	r2,82
   20720:	00000306 	br	20730 <getSpot+0x174>
    case 5: return 'G'; break;
   20724:	008011c4 	movi	r2,71
   20728:	00000106 	br	20730 <getSpot+0x174>
    default: return 'O'; break;
   2072c:	008013c4 	movi	r2,79
    }
  }
}
   20730:	e037883a 	mov	sp,fp
   20734:	df000017 	ldw	fp,0(sp)
   20738:	dec00104 	addi	sp,sp,4
   2073c:	f800283a 	ret

00020740 <setSpot>:

void setSpot(Board b, int x, int y, char c) {
   20740:	defffa04 	addi	sp,sp,-24
   20744:	df000515 	stw	fp,20(sp)
   20748:	df000504 	addi	fp,sp,20
   2074c:	e13ffc15 	stw	r4,-16(fp)
   20750:	e17ffd15 	stw	r5,-12(fp)
   20754:	e1bffe15 	stw	r6,-8(fp)
   20758:	3805883a 	mov	r2,r7
   2075c:	e0bfff05 	stb	r2,-4(fp)
  unsigned char choice = 0;
   20760:	e03ffb05 	stb	zero,-20(fp)
  switch (c) {
   20764:	e0bfff07 	ldb	r2,-4(fp)
   20768:	10c014a0 	cmpeqi	r3,r2,82
   2076c:	18000f1e 	bne	r3,zero,207ac <setSpot+0x6c>
   20770:	10c014c8 	cmpgei	r3,r2,83
   20774:	1800031e 	bne	r3,zero,20784 <setSpot+0x44>
   20778:	108011e0 	cmpeqi	r2,r2,71
   2077c:	10000e1e 	bne	r2,zero,207b8 <setSpot+0x78>
   20780:	00001006 	br	207c4 <setSpot+0x84>
   20784:	10c019e0 	cmpeqi	r3,r2,103
   20788:	1800051e 	bne	r3,zero,207a0 <setSpot+0x60>
   2078c:	10801ca0 	cmpeqi	r2,r2,114
   20790:	10000c26 	beq	r2,zero,207c4 <setSpot+0x84>
  case 'r': choice = 3; break;
   20794:	008000c4 	movi	r2,3
   20798:	e0bffb05 	stb	r2,-20(fp)
   2079c:	00000b06 	br	207cc <setSpot+0x8c>
  case 'g': choice = 1; break;
   207a0:	00800044 	movi	r2,1
   207a4:	e0bffb05 	stb	r2,-20(fp)
   207a8:	00000806 	br	207cc <setSpot+0x8c>
  case 'R': choice = 7; break;
   207ac:	008001c4 	movi	r2,7
   207b0:	e0bffb05 	stb	r2,-20(fp)
   207b4:	00000506 	br	207cc <setSpot+0x8c>
  case 'G': choice = 5; break;
   207b8:	00800144 	movi	r2,5
   207bc:	e0bffb05 	stb	r2,-20(fp)
   207c0:	00000206 	br	207cc <setSpot+0x8c>
  default: choice = 0; break;
   207c4:	e03ffb05 	stb	zero,-20(fp)
   207c8:	0001883a 	nop
  }
  if (x % 2 == 0) {
   207cc:	e0bffd17 	ldw	r2,-12(fp)
   207d0:	1080004c 	andi	r2,r2,1
   207d4:	1000221e 	bne	r2,zero,20860 <setSpot+0x120>
    choice <<= 4;
   207d8:	e0bffb03 	ldbu	r2,-20(fp)
   207dc:	1004913a 	slli	r2,r2,4
   207e0:	e0bffb05 	stb	r2,-20(fp)
    b[y][x / 2] = (b[y][x / 2] & 0x0F) | choice;
   207e4:	e0bffe17 	ldw	r2,-8(fp)
   207e8:	1085883a 	add	r2,r2,r2
   207ec:	1085883a 	add	r2,r2,r2
   207f0:	1007883a 	mov	r3,r2
   207f4:	e0bffc17 	ldw	r2,-16(fp)
   207f8:	10c7883a 	add	r3,r2,r3
   207fc:	e0bffd17 	ldw	r2,-12(fp)
   20800:	1008d7fa 	srli	r4,r2,31
   20804:	2085883a 	add	r2,r4,r2
   20808:	1005d07a 	srai	r2,r2,1
   2080c:	100d883a 	mov	r6,r2
   20810:	e0bffe17 	ldw	r2,-8(fp)
   20814:	1085883a 	add	r2,r2,r2
   20818:	1085883a 	add	r2,r2,r2
   2081c:	1009883a 	mov	r4,r2
   20820:	e0bffc17 	ldw	r2,-16(fp)
   20824:	1109883a 	add	r4,r2,r4
   20828:	e0bffd17 	ldw	r2,-12(fp)
   2082c:	100ad7fa 	srli	r5,r2,31
   20830:	2885883a 	add	r2,r5,r2
   20834:	1005d07a 	srai	r2,r2,1
   20838:	2085883a 	add	r2,r4,r2
   2083c:	10800003 	ldbu	r2,0(r2)
   20840:	108003cc 	andi	r2,r2,15
   20844:	1009883a 	mov	r4,r2
   20848:	e0bffb03 	ldbu	r2,-20(fp)
   2084c:	2084b03a 	or	r2,r4,r2
   20850:	1009883a 	mov	r4,r2
   20854:	1985883a 	add	r2,r3,r6
   20858:	11000005 	stb	r4,0(r2)
  } else {
    b[y][x / 2] = (b[y][x / 2] & 0xF0) | choice;
  }
}
   2085c:	00002006 	br	208e0 <setSpot+0x1a0>
  }
  if (x % 2 == 0) {
    choice <<= 4;
    b[y][x / 2] = (b[y][x / 2] & 0x0F) | choice;
  } else {
    b[y][x / 2] = (b[y][x / 2] & 0xF0) | choice;
   20860:	e0bffe17 	ldw	r2,-8(fp)
   20864:	1085883a 	add	r2,r2,r2
   20868:	1085883a 	add	r2,r2,r2
   2086c:	1007883a 	mov	r3,r2
   20870:	e0bffc17 	ldw	r2,-16(fp)
   20874:	10c7883a 	add	r3,r2,r3
   20878:	e0bffd17 	ldw	r2,-12(fp)
   2087c:	1008d7fa 	srli	r4,r2,31
   20880:	2085883a 	add	r2,r4,r2
   20884:	1005d07a 	srai	r2,r2,1
   20888:	100d883a 	mov	r6,r2
   2088c:	e0bffe17 	ldw	r2,-8(fp)
   20890:	1085883a 	add	r2,r2,r2
   20894:	1085883a 	add	r2,r2,r2
   20898:	1009883a 	mov	r4,r2
   2089c:	e0bffc17 	ldw	r2,-16(fp)
   208a0:	1109883a 	add	r4,r2,r4
   208a4:	e0bffd17 	ldw	r2,-12(fp)
   208a8:	100ad7fa 	srli	r5,r2,31
   208ac:	2885883a 	add	r2,r5,r2
   208b0:	1005d07a 	srai	r2,r2,1
   208b4:	2085883a 	add	r2,r4,r2
   208b8:	10800003 	ldbu	r2,0(r2)
   208bc:	1009883a 	mov	r4,r2
   208c0:	00bffc04 	movi	r2,-16
   208c4:	2084703a 	and	r2,r4,r2
   208c8:	1009883a 	mov	r4,r2
   208cc:	e0bffb03 	ldbu	r2,-20(fp)
   208d0:	2084b03a 	or	r2,r4,r2
   208d4:	1009883a 	mov	r4,r2
   208d8:	1985883a 	add	r2,r3,r6
   208dc:	11000005 	stb	r4,0(r2)
  }
}
   208e0:	0001883a 	nop
   208e4:	e037883a 	mov	sp,fp
   208e8:	df000017 	ldw	fp,0(sp)
   208ec:	dec00104 	addi	sp,sp,4
   208f0:	f800283a 	ret

000208f4 <initializeBoard>:

void initializeBoard(Board b) {
   208f4:	defffb04 	addi	sp,sp,-20
   208f8:	dfc00415 	stw	ra,16(sp)
   208fc:	df000315 	stw	fp,12(sp)
   20900:	df000304 	addi	fp,sp,12
   20904:	e13fff15 	stw	r4,-4(fp)
  int i, j;
  for (i = 0; i < BOARD_SIZE; i++) {
   20908:	e03ffd15 	stw	zero,-12(fp)
   2090c:	00001006 	br	20950 <initializeBoard+0x5c>
    for (j = 0; j < BOARD_SIZE; j++) {
   20910:	e03ffe15 	stw	zero,-8(fp)
   20914:	00000806 	br	20938 <initializeBoard+0x44>
      setSpot(b, i, j, 'O');
   20918:	01c013c4 	movi	r7,79
   2091c:	e1bffe17 	ldw	r6,-8(fp)
   20920:	e17ffd17 	ldw	r5,-12(fp)
   20924:	e13fff17 	ldw	r4,-4(fp)
   20928:	00207400 	call	20740 <setSpot>
}

void initializeBoard(Board b) {
  int i, j;
  for (i = 0; i < BOARD_SIZE; i++) {
    for (j = 0; j < BOARD_SIZE; j++) {
   2092c:	e0bffe17 	ldw	r2,-8(fp)
   20930:	10800044 	addi	r2,r2,1
   20934:	e0bffe15 	stw	r2,-8(fp)
   20938:	e0bffe17 	ldw	r2,-8(fp)
   2093c:	10800210 	cmplti	r2,r2,8
   20940:	103ff51e 	bne	r2,zero,20918 <_gp+0xfffdf5e0>
  }
}

void initializeBoard(Board b) {
  int i, j;
  for (i = 0; i < BOARD_SIZE; i++) {
   20944:	e0bffd17 	ldw	r2,-12(fp)
   20948:	10800044 	addi	r2,r2,1
   2094c:	e0bffd15 	stw	r2,-12(fp)
   20950:	e0bffd17 	ldw	r2,-12(fp)
   20954:	10800210 	cmplti	r2,r2,8
   20958:	103fed1e 	bne	r2,zero,20910 <_gp+0xfffdf5d8>
    for (j = 0; j < BOARD_SIZE; j++) {
      setSpot(b, i, j, 'O');
    }
  }
  for (i = 0; i < BOARD_SIZE; i += 2) {
   2095c:	e03ffd15 	stw	zero,-12(fp)
   20960:	00000806 	br	20984 <initializeBoard+0x90>
    setSpot(b, i, 0, 'r');
   20964:	01c01c84 	movi	r7,114
   20968:	000d883a 	mov	r6,zero
   2096c:	e17ffd17 	ldw	r5,-12(fp)
   20970:	e13fff17 	ldw	r4,-4(fp)
   20974:	00207400 	call	20740 <setSpot>
  for (i = 0; i < BOARD_SIZE; i++) {
    for (j = 0; j < BOARD_SIZE; j++) {
      setSpot(b, i, j, 'O');
    }
  }
  for (i = 0; i < BOARD_SIZE; i += 2) {
   20978:	e0bffd17 	ldw	r2,-12(fp)
   2097c:	10800084 	addi	r2,r2,2
   20980:	e0bffd15 	stw	r2,-12(fp)
   20984:	e0bffd17 	ldw	r2,-12(fp)
   20988:	10800210 	cmplti	r2,r2,8
   2098c:	103ff51e 	bne	r2,zero,20964 <_gp+0xfffdf62c>
    setSpot(b, i, 0, 'r');
  }
  for (i = 1; i < BOARD_SIZE; i += 2) {
   20990:	00800044 	movi	r2,1
   20994:	e0bffd15 	stw	r2,-12(fp)
   20998:	00000806 	br	209bc <initializeBoard+0xc8>
    setSpot(b, i, 1, 'r');
   2099c:	01c01c84 	movi	r7,114
   209a0:	01800044 	movi	r6,1
   209a4:	e17ffd17 	ldw	r5,-12(fp)
   209a8:	e13fff17 	ldw	r4,-4(fp)
   209ac:	00207400 	call	20740 <setSpot>
    }
  }
  for (i = 0; i < BOARD_SIZE; i += 2) {
    setSpot(b, i, 0, 'r');
  }
  for (i = 1; i < BOARD_SIZE; i += 2) {
   209b0:	e0bffd17 	ldw	r2,-12(fp)
   209b4:	10800084 	addi	r2,r2,2
   209b8:	e0bffd15 	stw	r2,-12(fp)
   209bc:	e0bffd17 	ldw	r2,-12(fp)
   209c0:	10800210 	cmplti	r2,r2,8
   209c4:	103ff51e 	bne	r2,zero,2099c <_gp+0xfffdf664>
    setSpot(b, i, 1, 'r');
  }
  for (i = 0; i < BOARD_SIZE; i += 2) {
   209c8:	e03ffd15 	stw	zero,-12(fp)
   209cc:	00000806 	br	209f0 <initializeBoard+0xfc>
    setSpot(b, i, 2, 'r');
   209d0:	01c01c84 	movi	r7,114
   209d4:	01800084 	movi	r6,2
   209d8:	e17ffd17 	ldw	r5,-12(fp)
   209dc:	e13fff17 	ldw	r4,-4(fp)
   209e0:	00207400 	call	20740 <setSpot>
    setSpot(b, i, 0, 'r');
  }
  for (i = 1; i < BOARD_SIZE; i += 2) {
    setSpot(b, i, 1, 'r');
  }
  for (i = 0; i < BOARD_SIZE; i += 2) {
   209e4:	e0bffd17 	ldw	r2,-12(fp)
   209e8:	10800084 	addi	r2,r2,2
   209ec:	e0bffd15 	stw	r2,-12(fp)
   209f0:	e0bffd17 	ldw	r2,-12(fp)
   209f4:	10800210 	cmplti	r2,r2,8
   209f8:	103ff51e 	bne	r2,zero,209d0 <_gp+0xfffdf698>
    setSpot(b, i, 2, 'r');
  }
  for (i = 1; i < BOARD_SIZE; i += 2) {
   209fc:	00800044 	movi	r2,1
   20a00:	e0bffd15 	stw	r2,-12(fp)
   20a04:	00000806 	br	20a28 <initializeBoard+0x134>
    setSpot(b, i, 5, 'g');
   20a08:	01c019c4 	movi	r7,103
   20a0c:	01800144 	movi	r6,5
   20a10:	e17ffd17 	ldw	r5,-12(fp)
   20a14:	e13fff17 	ldw	r4,-4(fp)
   20a18:	00207400 	call	20740 <setSpot>
    setSpot(b, i, 1, 'r');
  }
  for (i = 0; i < BOARD_SIZE; i += 2) {
    setSpot(b, i, 2, 'r');
  }
  for (i = 1; i < BOARD_SIZE; i += 2) {
   20a1c:	e0bffd17 	ldw	r2,-12(fp)
   20a20:	10800084 	addi	r2,r2,2
   20a24:	e0bffd15 	stw	r2,-12(fp)
   20a28:	e0bffd17 	ldw	r2,-12(fp)
   20a2c:	10800210 	cmplti	r2,r2,8
   20a30:	103ff51e 	bne	r2,zero,20a08 <_gp+0xfffdf6d0>
    setSpot(b, i, 5, 'g');
  }
  for (i = 0; i < BOARD_SIZE; i += 2) {
   20a34:	e03ffd15 	stw	zero,-12(fp)
   20a38:	00000806 	br	20a5c <initializeBoard+0x168>
    setSpot(b, i, 6, 'g');
   20a3c:	01c019c4 	movi	r7,103
   20a40:	01800184 	movi	r6,6
   20a44:	e17ffd17 	ldw	r5,-12(fp)
   20a48:	e13fff17 	ldw	r4,-4(fp)
   20a4c:	00207400 	call	20740 <setSpot>
    setSpot(b, i, 2, 'r');
  }
  for (i = 1; i < BOARD_SIZE; i += 2) {
    setSpot(b, i, 5, 'g');
  }
  for (i = 0; i < BOARD_SIZE; i += 2) {
   20a50:	e0bffd17 	ldw	r2,-12(fp)
   20a54:	10800084 	addi	r2,r2,2
   20a58:	e0bffd15 	stw	r2,-12(fp)
   20a5c:	e0bffd17 	ldw	r2,-12(fp)
   20a60:	10800210 	cmplti	r2,r2,8
   20a64:	103ff51e 	bne	r2,zero,20a3c <_gp+0xfffdf704>
    setSpot(b, i, 6, 'g');
  }
  for (i = 1; i < BOARD_SIZE; i += 2) {
   20a68:	00800044 	movi	r2,1
   20a6c:	e0bffd15 	stw	r2,-12(fp)
   20a70:	00000806 	br	20a94 <initializeBoard+0x1a0>
    setSpot(b, i, 7, 'g');
   20a74:	01c019c4 	movi	r7,103
   20a78:	018001c4 	movi	r6,7
   20a7c:	e17ffd17 	ldw	r5,-12(fp)
   20a80:	e13fff17 	ldw	r4,-4(fp)
   20a84:	00207400 	call	20740 <setSpot>
    setSpot(b, i, 5, 'g');
  }
  for (i = 0; i < BOARD_SIZE; i += 2) {
    setSpot(b, i, 6, 'g');
  }
  for (i = 1; i < BOARD_SIZE; i += 2) {
   20a88:	e0bffd17 	ldw	r2,-12(fp)
   20a8c:	10800084 	addi	r2,r2,2
   20a90:	e0bffd15 	stw	r2,-12(fp)
   20a94:	e0bffd17 	ldw	r2,-12(fp)
   20a98:	10800210 	cmplti	r2,r2,8
   20a9c:	103ff51e 	bne	r2,zero,20a74 <_gp+0xfffdf73c>
    setSpot(b, i, 7, 'g');
  }
}
   20aa0:	0001883a 	nop
   20aa4:	e037883a 	mov	sp,fp
   20aa8:	dfc00117 	ldw	ra,4(sp)
   20aac:	df000017 	ldw	fp,0(sp)
   20ab0:	dec00204 	addi	sp,sp,8
   20ab4:	f800283a 	ret

00020ab8 <movePiece>:

int movePiece(Board b, int x, int y, int nx, int ny) {
   20ab8:	defff904 	addi	sp,sp,-28
   20abc:	dfc00615 	stw	ra,24(sp)
   20ac0:	df000515 	stw	fp,20(sp)
   20ac4:	df000504 	addi	fp,sp,20
   20ac8:	e13ffc15 	stw	r4,-16(fp)
   20acc:	e17ffd15 	stw	r5,-12(fp)
   20ad0:	e1bffe15 	stw	r6,-8(fp)
   20ad4:	e1ffff15 	stw	r7,-4(fp)
  if (!checkMove(b, x, y, nx, ny) && !DEBUG) {
   20ad8:	e0800217 	ldw	r2,8(fp)
   20adc:	d8800015 	stw	r2,0(sp)
   20ae0:	e1ffff17 	ldw	r7,-4(fp)
   20ae4:	e1bffe17 	ldw	r6,-8(fp)
   20ae8:	e17ffd17 	ldw	r5,-12(fp)
   20aec:	e13ffc17 	ldw	r4,-16(fp)
   20af0:	0020b7c0 	call	20b7c <checkMove>
   20af4:	1000051e 	bne	r2,zero,20b0c <movePiece+0x54>
    printf("Invalid move!\n");
   20af8:	01000134 	movhi	r4,4
   20afc:	2120d404 	addi	r4,r4,-31920
   20b00:	00217640 	call	21764 <puts>
    return 0;
   20b04:	0005883a 	mov	r2,zero
   20b08:	00001706 	br	20b68 <movePiece+0xb0>
  } else {
    setSpot(b, nx, ny, getSpot(b, x, y));
   20b0c:	e1bffe17 	ldw	r6,-8(fp)
   20b10:	e17ffd17 	ldw	r5,-12(fp)
   20b14:	e13ffc17 	ldw	r4,-16(fp)
   20b18:	00205bc0 	call	205bc <getSpot>
   20b1c:	10803fcc 	andi	r2,r2,255
   20b20:	1080201c 	xori	r2,r2,128
   20b24:	10bfe004 	addi	r2,r2,-128
   20b28:	100f883a 	mov	r7,r2
   20b2c:	e1800217 	ldw	r6,8(fp)
   20b30:	e17fff17 	ldw	r5,-4(fp)
   20b34:	e13ffc17 	ldw	r4,-16(fp)
   20b38:	00207400 	call	20740 <setSpot>
    setSpot(b, x, y, 'O');
   20b3c:	01c013c4 	movi	r7,79
   20b40:	e1bffe17 	ldw	r6,-8(fp)
   20b44:	e17ffd17 	ldw	r5,-12(fp)
   20b48:	e13ffc17 	ldw	r4,-16(fp)
   20b4c:	00207400 	call	20740 <setSpot>
    boardToBuffer(b);
   20b50:	e13ffc17 	ldw	r4,-16(fp)
   20b54:	00201e80 	call	201e8 <boardToBuffer>
    printf("Move successful!\n");
   20b58:	01000134 	movhi	r4,4
   20b5c:	2120d804 	addi	r4,r4,-31904
   20b60:	00217640 	call	21764 <puts>
    return 1;
   20b64:	00800044 	movi	r2,1
  }
}
   20b68:	e037883a 	mov	sp,fp
   20b6c:	dfc00117 	ldw	ra,4(sp)
   20b70:	df000017 	ldw	fp,0(sp)
   20b74:	dec00204 	addi	sp,sp,8
   20b78:	f800283a 	ret

00020b7c <checkMove>:

int checkMove(Board b, int x, int y, int nx, int ny) {
   20b7c:	defff304 	addi	sp,sp,-52
   20b80:	dfc00c15 	stw	ra,48(sp)
   20b84:	df000b15 	stw	fp,44(sp)
   20b88:	df000b04 	addi	fp,sp,44
   20b8c:	e13ffc15 	stw	r4,-16(fp)
   20b90:	e17ffd15 	stw	r5,-12(fp)
   20b94:	e1bffe15 	stw	r6,-8(fp)
   20b98:	e1ffff15 	stw	r7,-4(fp)
  // Piece on board
  if (x < 0 || x > 7 || y < 0 || y > 7 ||
   20b9c:	e0bffd17 	ldw	r2,-12(fp)
   20ba0:	10001216 	blt	r2,zero,20bec <checkMove+0x70>
   20ba4:	e0bffd17 	ldw	r2,-12(fp)
   20ba8:	10800208 	cmpgei	r2,r2,8
   20bac:	10000f1e 	bne	r2,zero,20bec <checkMove+0x70>
   20bb0:	e0bffe17 	ldw	r2,-8(fp)
   20bb4:	10000d16 	blt	r2,zero,20bec <checkMove+0x70>
   20bb8:	e0bffe17 	ldw	r2,-8(fp)
   20bbc:	10800208 	cmpgei	r2,r2,8
   20bc0:	10000a1e 	bne	r2,zero,20bec <checkMove+0x70>
   20bc4:	e0bfff17 	ldw	r2,-4(fp)
   20bc8:	10000816 	blt	r2,zero,20bec <checkMove+0x70>
      nx < 0 || nx > 7 || ny < 0 || ny > 7) {
   20bcc:	e0bfff17 	ldw	r2,-4(fp)
   20bd0:	10800208 	cmpgei	r2,r2,8
   20bd4:	1000051e 	bne	r2,zero,20bec <checkMove+0x70>
   20bd8:	e0800217 	ldw	r2,8(fp)
   20bdc:	10000316 	blt	r2,zero,20bec <checkMove+0x70>
   20be0:	e0800217 	ldw	r2,8(fp)
   20be4:	10800210 	cmplti	r2,r2,8
   20be8:	1000021e 	bne	r2,zero,20bf4 <checkMove+0x78>
    return 0;
   20bec:	0005883a 	mov	r2,zero
   20bf0:	00008706 	br	20e10 <checkMove+0x294>
  }

  // Can't move to a spot that already has a piece
  if (getSpot(b, nx, ny) != 'O') {
   20bf4:	e1800217 	ldw	r6,8(fp)
   20bf8:	e17fff17 	ldw	r5,-4(fp)
   20bfc:	e13ffc17 	ldw	r4,-16(fp)
   20c00:	00205bc0 	call	205bc <getSpot>
   20c04:	10803fcc 	andi	r2,r2,255
   20c08:	1080201c 	xori	r2,r2,128
   20c0c:	10bfe004 	addi	r2,r2,-128
   20c10:	108013e0 	cmpeqi	r2,r2,79
   20c14:	1000021e 	bne	r2,zero,20c20 <checkMove+0xa4>
    return 0;
   20c18:	0005883a 	mov	r2,zero
   20c1c:	00007c06 	br	20e10 <checkMove+0x294>
  }

  // Make sure it's your piece, and if king or not
  char piece = getSpot(b, x, y);
   20c20:	e1bffe17 	ldw	r6,-8(fp)
   20c24:	e17ffd17 	ldw	r5,-12(fp)
   20c28:	e13ffc17 	ldw	r4,-16(fp)
   20c2c:	00205bc0 	call	205bc <getSpot>
   20c30:	e0bff805 	stb	r2,-32(fp)
  if (piece == 'g' && ny < y) {
   20c34:	e0bff807 	ldb	r2,-32(fp)
   20c38:	108019d8 	cmpnei	r2,r2,103
   20c3c:	1000371e 	bne	r2,zero,20d1c <checkMove+0x1a0>
   20c40:	e0c00217 	ldw	r3,8(fp)
   20c44:	e0bffe17 	ldw	r2,-8(fp)
   20c48:	1880340e 	bge	r3,r2,20d1c <checkMove+0x1a0>
    if (y - ny == 1 && (x - nx == 1 || nx - x == 1)) {
   20c4c:	e0fffe17 	ldw	r3,-8(fp)
   20c50:	e0800217 	ldw	r2,8(fp)
   20c54:	1885c83a 	sub	r2,r3,r2
   20c58:	10800058 	cmpnei	r2,r2,1
   20c5c:	10000c1e 	bne	r2,zero,20c90 <checkMove+0x114>
   20c60:	e0fffd17 	ldw	r3,-12(fp)
   20c64:	e0bfff17 	ldw	r2,-4(fp)
   20c68:	1885c83a 	sub	r2,r3,r2
   20c6c:	10800060 	cmpeqi	r2,r2,1
   20c70:	1000051e 	bne	r2,zero,20c88 <checkMove+0x10c>
   20c74:	e0ffff17 	ldw	r3,-4(fp)
   20c78:	e0bffd17 	ldw	r2,-12(fp)
   20c7c:	1885c83a 	sub	r2,r3,r2
   20c80:	10800058 	cmpnei	r2,r2,1
   20c84:	1000021e 	bne	r2,zero,20c90 <checkMove+0x114>
      return 1;
   20c88:	00800044 	movi	r2,1
   20c8c:	00006006 	br	20e10 <checkMove+0x294>
    }
    int ret = jump(b, piece, x, y, nx, ny, - 1);
   20c90:	e0fff807 	ldb	r3,-32(fp)
   20c94:	00bfffc4 	movi	r2,-1
   20c98:	d8800215 	stw	r2,8(sp)
   20c9c:	e0800217 	ldw	r2,8(fp)
   20ca0:	d8800115 	stw	r2,4(sp)
   20ca4:	e0bfff17 	ldw	r2,-4(fp)
   20ca8:	d8800015 	stw	r2,0(sp)
   20cac:	e1fffe17 	ldw	r7,-8(fp)
   20cb0:	e1bffd17 	ldw	r6,-12(fp)
   20cb4:	180b883a 	mov	r5,r3
   20cb8:	e13ffc17 	ldw	r4,-16(fp)
   20cbc:	0020e240 	call	20e24 <jump>
   20cc0:	e0bff915 	stw	r2,-28(fp)
    if (ret) {
   20cc4:	e0bff917 	ldw	r2,-28(fp)
   20cc8:	10001226 	beq	r2,zero,20d14 <checkMove+0x198>
      while (stack.index > 0) {
   20ccc:	00000d06 	br	20d04 <checkMove+0x188>
	Point p = popStack(&stack);
   20cd0:	01000134 	movhi	r4,4
   20cd4:	21271704 	addi	r4,r4,-25508
   20cd8:	00214900 	call	21490 <popStack>
   20cdc:	e0bffb0d 	sth	r2,-20(fp)
	setSpot(b, p.x, p.y, 'O');
   20ce0:	e0bffb03 	ldbu	r2,-20(fp)
   20ce4:	10803fcc 	andi	r2,r2,255
   20ce8:	e0fffb43 	ldbu	r3,-19(fp)
   20cec:	18c03fcc 	andi	r3,r3,255
   20cf0:	01c013c4 	movi	r7,79
   20cf4:	180d883a 	mov	r6,r3
   20cf8:	100b883a 	mov	r5,r2
   20cfc:	e13ffc17 	ldw	r4,-16(fp)
   20d00:	00207400 	call	20740 <setSpot>
    if (y - ny == 1 && (x - nx == 1 || nx - x == 1)) {
      return 1;
    }
    int ret = jump(b, piece, x, y, nx, ny, - 1);
    if (ret) {
      while (stack.index > 0) {
   20d04:	00800134 	movhi	r2,4
   20d08:	10a71704 	addi	r2,r2,-25508
   20d0c:	10800317 	ldw	r2,12(r2)
   20d10:	00bfef16 	blt	zero,r2,20cd0 <_gp+0xfffdf998>
	Point p = popStack(&stack);
	setSpot(b, p.x, p.y, 'O');
      }
    }
    return ret;
   20d14:	e0bff917 	ldw	r2,-28(fp)
   20d18:	00003d06 	br	20e10 <checkMove+0x294>
  } else if (piece == 'G') {
   20d1c:	e0bff807 	ldb	r2,-32(fp)
   20d20:	108011d8 	cmpnei	r2,r2,71
   20d24:	1000391e 	bne	r2,zero,20e0c <checkMove+0x290>
    if ((y - ny == 1 || ny - y == 1) && (x - nx == 1 || nx - x == 1)) {
   20d28:	e0fffe17 	ldw	r3,-8(fp)
   20d2c:	e0800217 	ldw	r2,8(fp)
   20d30:	1885c83a 	sub	r2,r3,r2
   20d34:	10800060 	cmpeqi	r2,r2,1
   20d38:	1000051e 	bne	r2,zero,20d50 <checkMove+0x1d4>
   20d3c:	e0c00217 	ldw	r3,8(fp)
   20d40:	e0bffe17 	ldw	r2,-8(fp)
   20d44:	1885c83a 	sub	r2,r3,r2
   20d48:	10800058 	cmpnei	r2,r2,1
   20d4c:	10000c1e 	bne	r2,zero,20d80 <checkMove+0x204>
   20d50:	e0fffd17 	ldw	r3,-12(fp)
   20d54:	e0bfff17 	ldw	r2,-4(fp)
   20d58:	1885c83a 	sub	r2,r3,r2
   20d5c:	10800060 	cmpeqi	r2,r2,1
   20d60:	1000051e 	bne	r2,zero,20d78 <checkMove+0x1fc>
   20d64:	e0ffff17 	ldw	r3,-4(fp)
   20d68:	e0bffd17 	ldw	r2,-12(fp)
   20d6c:	1885c83a 	sub	r2,r3,r2
   20d70:	10800058 	cmpnei	r2,r2,1
   20d74:	1000021e 	bne	r2,zero,20d80 <checkMove+0x204>
      return 1;
   20d78:	00800044 	movi	r2,1
   20d7c:	00002406 	br	20e10 <checkMove+0x294>
    }
    int ret =  jump(b, piece, x, y, nx, ny, - 1);
   20d80:	e0fff807 	ldb	r3,-32(fp)
   20d84:	00bfffc4 	movi	r2,-1
   20d88:	d8800215 	stw	r2,8(sp)
   20d8c:	e0800217 	ldw	r2,8(fp)
   20d90:	d8800115 	stw	r2,4(sp)
   20d94:	e0bfff17 	ldw	r2,-4(fp)
   20d98:	d8800015 	stw	r2,0(sp)
   20d9c:	e1fffe17 	ldw	r7,-8(fp)
   20da0:	e1bffd17 	ldw	r6,-12(fp)
   20da4:	180b883a 	mov	r5,r3
   20da8:	e13ffc17 	ldw	r4,-16(fp)
   20dac:	0020e240 	call	20e24 <jump>
   20db0:	e0bffa15 	stw	r2,-24(fp)
    if (ret) {
   20db4:	e0bffa17 	ldw	r2,-24(fp)
   20db8:	10001226 	beq	r2,zero,20e04 <checkMove+0x288>
      while (stack.index > 0) {
   20dbc:	00000d06 	br	20df4 <checkMove+0x278>
	Point p = popStack(&stack);
   20dc0:	01000134 	movhi	r4,4
   20dc4:	21271704 	addi	r4,r4,-25508
   20dc8:	00214900 	call	21490 <popStack>
   20dcc:	e0bffb8d 	sth	r2,-18(fp)
	setSpot(b, p.x, p.y, 'O');
   20dd0:	e0bffb83 	ldbu	r2,-18(fp)
   20dd4:	10803fcc 	andi	r2,r2,255
   20dd8:	e0fffbc3 	ldbu	r3,-17(fp)
   20ddc:	18c03fcc 	andi	r3,r3,255
   20de0:	01c013c4 	movi	r7,79
   20de4:	180d883a 	mov	r6,r3
   20de8:	100b883a 	mov	r5,r2
   20dec:	e13ffc17 	ldw	r4,-16(fp)
   20df0:	00207400 	call	20740 <setSpot>
    if ((y - ny == 1 || ny - y == 1) && (x - nx == 1 || nx - x == 1)) {
      return 1;
    }
    int ret =  jump(b, piece, x, y, nx, ny, - 1);
    if (ret) {
      while (stack.index > 0) {
   20df4:	00800134 	movhi	r2,4
   20df8:	10a71704 	addi	r2,r2,-25508
   20dfc:	10800317 	ldw	r2,12(r2)
   20e00:	00bfef16 	blt	zero,r2,20dc0 <_gp+0xfffdfa88>
	Point p = popStack(&stack);
	setSpot(b, p.x, p.y, 'O');
      }
    }
    return ret;
   20e04:	e0bffa17 	ldw	r2,-24(fp)
   20e08:	00000106 	br	20e10 <checkMove+0x294>
  } else {
    return 0;
   20e0c:	0005883a 	mov	r2,zero
  }
  return 1;
}
   20e10:	e037883a 	mov	sp,fp
   20e14:	dfc00117 	ldw	ra,4(sp)
   20e18:	df000017 	ldw	fp,0(sp)
   20e1c:	dec00204 	addi	sp,sp,8
   20e20:	f800283a 	ret

00020e24 <jump>:

int jump(Board b, char piece, int x, int y, int nx, int ny, int dir) {
   20e24:	defff304 	addi	sp,sp,-52
   20e28:	dfc00c15 	stw	ra,48(sp)
   20e2c:	df000b15 	stw	fp,44(sp)
   20e30:	df000b04 	addi	fp,sp,44
   20e34:	e13ffc15 	stw	r4,-16(fp)
   20e38:	2805883a 	mov	r2,r5
   20e3c:	e1bffe15 	stw	r6,-8(fp)
   20e40:	e1ffff15 	stw	r7,-4(fp)
   20e44:	e0bffd05 	stb	r2,-12(fp)
  if (x < 0 || x > 7 || y < 0 || y > 7 ||
   20e48:	e0bffe17 	ldw	r2,-8(fp)
   20e4c:	10001216 	blt	r2,zero,20e98 <jump+0x74>
   20e50:	e0bffe17 	ldw	r2,-8(fp)
   20e54:	10800208 	cmpgei	r2,r2,8
   20e58:	10000f1e 	bne	r2,zero,20e98 <jump+0x74>
   20e5c:	e0bfff17 	ldw	r2,-4(fp)
   20e60:	10000d16 	blt	r2,zero,20e98 <jump+0x74>
   20e64:	e0bfff17 	ldw	r2,-4(fp)
   20e68:	10800208 	cmpgei	r2,r2,8
   20e6c:	10000a1e 	bne	r2,zero,20e98 <jump+0x74>
   20e70:	e0800217 	ldw	r2,8(fp)
   20e74:	10000816 	blt	r2,zero,20e98 <jump+0x74>
      nx < 0 || nx > 7 || ny < 0 || ny > 7) {
   20e78:	e0800217 	ldw	r2,8(fp)
   20e7c:	10800208 	cmpgei	r2,r2,8
   20e80:	1000051e 	bne	r2,zero,20e98 <jump+0x74>
   20e84:	e0800317 	ldw	r2,12(fp)
   20e88:	10000316 	blt	r2,zero,20e98 <jump+0x74>
   20e8c:	e0800317 	ldw	r2,12(fp)
   20e90:	10800210 	cmplti	r2,r2,8
   20e94:	1000021e 	bne	r2,zero,20ea0 <jump+0x7c>
    return 0;
   20e98:	0005883a 	mov	r2,zero
   20e9c:	00015606 	br	213f8 <jump+0x5d4>
  }
  if (x == nx && y == ny) {
   20ea0:	e0fffe17 	ldw	r3,-8(fp)
   20ea4:	e0800217 	ldw	r2,8(fp)
   20ea8:	1880051e 	bne	r3,r2,20ec0 <jump+0x9c>
   20eac:	e0ffff17 	ldw	r3,-4(fp)
   20eb0:	e0800317 	ldw	r2,12(fp)
   20eb4:	1880021e 	bne	r3,r2,20ec0 <jump+0x9c>
    return 1;
   20eb8:	00800044 	movi	r2,1
   20ebc:	00014e06 	br	213f8 <jump+0x5d4>
  }
  printf("%d, %d\n", x, y);
   20ec0:	e1bfff17 	ldw	r6,-4(fp)
   20ec4:	e17ffe17 	ldw	r5,-8(fp)
   20ec8:	01000134 	movhi	r4,4
   20ecc:	2120dd04 	addi	r4,r4,-31884
   20ed0:	00216480 	call	21648 <printf>
  int tl = 0;
   20ed4:	e03ff815 	stw	zero,-32(fp)
  int tr = 0;
   20ed8:	e03ff915 	stw	zero,-28(fp)
  int bl = 0;
   20edc:	e03ffa15 	stw	zero,-24(fp)
  int br = 0;
   20ee0:	e03ffb15 	stw	zero,-20(fp)
    if ((getSpot(b, x + 1, y - 1) == 'r' ||
   20ee4:	e0bffe17 	ldw	r2,-8(fp)
   20ee8:	10c00044 	addi	r3,r2,1
   20eec:	e0bfff17 	ldw	r2,-4(fp)
   20ef0:	10bfffc4 	addi	r2,r2,-1
   20ef4:	100d883a 	mov	r6,r2
   20ef8:	180b883a 	mov	r5,r3
   20efc:	e13ffc17 	ldw	r4,-16(fp)
   20f00:	00205bc0 	call	205bc <getSpot>
   20f04:	10803fcc 	andi	r2,r2,255
   20f08:	1080201c 	xori	r2,r2,128
   20f0c:	10bfe004 	addi	r2,r2,-128
   20f10:	10801ca0 	cmpeqi	r2,r2,114
   20f14:	10000d1e 	bne	r2,zero,20f4c <jump+0x128>
	 getSpot(b, x + 1, y - 1) == 'R') &&
   20f18:	e0bffe17 	ldw	r2,-8(fp)
   20f1c:	10c00044 	addi	r3,r2,1
   20f20:	e0bfff17 	ldw	r2,-4(fp)
   20f24:	10bfffc4 	addi	r2,r2,-1
   20f28:	100d883a 	mov	r6,r2
   20f2c:	180b883a 	mov	r5,r3
   20f30:	e13ffc17 	ldw	r4,-16(fp)
   20f34:	00205bc0 	call	205bc <getSpot>
  printf("%d, %d\n", x, y);
  int tl = 0;
  int tr = 0;
  int bl = 0;
  int br = 0;
    if ((getSpot(b, x + 1, y - 1) == 'r' ||
   20f38:	10803fcc 	andi	r2,r2,255
   20f3c:	1080201c 	xori	r2,r2,128
   20f40:	10bfe004 	addi	r2,r2,-128
   20f44:	10801498 	cmpnei	r2,r2,82
   20f48:	1000341e 	bne	r2,zero,2101c <jump+0x1f8>
	 getSpot(b, x + 1, y - 1) == 'R') &&
	 getSpot(b, x + 2, y - 2) == 'O' &&
   20f4c:	e0bffe17 	ldw	r2,-8(fp)
   20f50:	10c00084 	addi	r3,r2,2
   20f54:	e0bfff17 	ldw	r2,-4(fp)
   20f58:	10bfff84 	addi	r2,r2,-2
   20f5c:	100d883a 	mov	r6,r2
   20f60:	180b883a 	mov	r5,r3
   20f64:	e13ffc17 	ldw	r4,-16(fp)
   20f68:	00205bc0 	call	205bc <getSpot>
  int tl = 0;
  int tr = 0;
  int bl = 0;
  int br = 0;
    if ((getSpot(b, x + 1, y - 1) == 'r' ||
	 getSpot(b, x + 1, y - 1) == 'R') &&
   20f6c:	10803fcc 	andi	r2,r2,255
   20f70:	1080201c 	xori	r2,r2,128
   20f74:	10bfe004 	addi	r2,r2,-128
   20f78:	108013d8 	cmpnei	r2,r2,79
   20f7c:	1000271e 	bne	r2,zero,2101c <jump+0x1f8>
	 getSpot(b, x + 2, y - 2) == 'O' &&
   20f80:	e0800417 	ldw	r2,16(fp)
   20f84:	108000a0 	cmpeqi	r2,r2,2
   20f88:	1000241e 	bne	r2,zero,2101c <jump+0x1f8>
	 dir != DIR_BL) {
      pushStack(&stack, x + 1, y - 1);
   20f8c:	e0bffe17 	ldw	r2,-8(fp)
   20f90:	10800044 	addi	r2,r2,1
   20f94:	10803fcc 	andi	r2,r2,255
   20f98:	e0ffff17 	ldw	r3,-4(fp)
   20f9c:	18ffffc4 	addi	r3,r3,-1
   20fa0:	18c03fcc 	andi	r3,r3,255
   20fa4:	180d883a 	mov	r6,r3
   20fa8:	100b883a 	mov	r5,r2
   20fac:	01000134 	movhi	r4,4
   20fb0:	21271704 	addi	r4,r4,-25508
   20fb4:	002140c0 	call	2140c <pushStack>
      tr = jump(b, piece, x + 2, y - 2, nx, ny, DIR_TR);
   20fb8:	e0fffd07 	ldb	r3,-12(fp)
   20fbc:	e0bffe17 	ldw	r2,-8(fp)
   20fc0:	11000084 	addi	r4,r2,2
   20fc4:	e0bfff17 	ldw	r2,-4(fp)
   20fc8:	117fff84 	addi	r5,r2,-2
   20fcc:	00800044 	movi	r2,1
   20fd0:	d8800215 	stw	r2,8(sp)
   20fd4:	e0800317 	ldw	r2,12(fp)
   20fd8:	d8800115 	stw	r2,4(sp)
   20fdc:	e0800217 	ldw	r2,8(fp)
   20fe0:	d8800015 	stw	r2,0(sp)
   20fe4:	280f883a 	mov	r7,r5
   20fe8:	200d883a 	mov	r6,r4
   20fec:	180b883a 	mov	r5,r3
   20ff0:	e13ffc17 	ldw	r4,-16(fp)
   20ff4:	0020e240 	call	20e24 <jump>
   20ff8:	e0bff915 	stw	r2,-28(fp)
      if (!tr) {
   20ffc:	e0bff917 	ldw	r2,-28(fp)
   21000:	1000041e 	bne	r2,zero,21014 <jump+0x1f0>
	popStack(&stack);
   21004:	01000134 	movhi	r4,4
   21008:	21271704 	addi	r4,r4,-25508
   2100c:	00214900 	call	21490 <popStack>
   21010:	00000206 	br	2101c <jump+0x1f8>
      } else {
	return tr;
   21014:	e0bff917 	ldw	r2,-28(fp)
   21018:	0000f706 	br	213f8 <jump+0x5d4>
      }
    }
    if ((getSpot(b, x - 1, y - 1) == 'r' ||
   2101c:	e0bffe17 	ldw	r2,-8(fp)
   21020:	10ffffc4 	addi	r3,r2,-1
   21024:	e0bfff17 	ldw	r2,-4(fp)
   21028:	10bfffc4 	addi	r2,r2,-1
   2102c:	100d883a 	mov	r6,r2
   21030:	180b883a 	mov	r5,r3
   21034:	e13ffc17 	ldw	r4,-16(fp)
   21038:	00205bc0 	call	205bc <getSpot>
   2103c:	10803fcc 	andi	r2,r2,255
   21040:	1080201c 	xori	r2,r2,128
   21044:	10bfe004 	addi	r2,r2,-128
   21048:	10801ca0 	cmpeqi	r2,r2,114
   2104c:	10000d1e 	bne	r2,zero,21084 <jump+0x260>
	 getSpot(b, x - 1, y - 1) == 'R') &&
   21050:	e0bffe17 	ldw	r2,-8(fp)
   21054:	10ffffc4 	addi	r3,r2,-1
   21058:	e0bfff17 	ldw	r2,-4(fp)
   2105c:	10bfffc4 	addi	r2,r2,-1
   21060:	100d883a 	mov	r6,r2
   21064:	180b883a 	mov	r5,r3
   21068:	e13ffc17 	ldw	r4,-16(fp)
   2106c:	00205bc0 	call	205bc <getSpot>
	popStack(&stack);
      } else {
	return tr;
      }
    }
    if ((getSpot(b, x - 1, y - 1) == 'r' ||
   21070:	10803fcc 	andi	r2,r2,255
   21074:	1080201c 	xori	r2,r2,128
   21078:	10bfe004 	addi	r2,r2,-128
   2107c:	10801498 	cmpnei	r2,r2,82
   21080:	1000331e 	bne	r2,zero,21150 <jump+0x32c>
	 getSpot(b, x - 1, y - 1) == 'R') &&
	 getSpot(b, x - 2, y - 2) == 'O' &&
   21084:	e0bffe17 	ldw	r2,-8(fp)
   21088:	10ffff84 	addi	r3,r2,-2
   2108c:	e0bfff17 	ldw	r2,-4(fp)
   21090:	10bfff84 	addi	r2,r2,-2
   21094:	100d883a 	mov	r6,r2
   21098:	180b883a 	mov	r5,r3
   2109c:	e13ffc17 	ldw	r4,-16(fp)
   210a0:	00205bc0 	call	205bc <getSpot>
      } else {
	return tr;
      }
    }
    if ((getSpot(b, x - 1, y - 1) == 'r' ||
	 getSpot(b, x - 1, y - 1) == 'R') &&
   210a4:	10803fcc 	andi	r2,r2,255
   210a8:	1080201c 	xori	r2,r2,128
   210ac:	10bfe004 	addi	r2,r2,-128
   210b0:	108013d8 	cmpnei	r2,r2,79
   210b4:	1000261e 	bne	r2,zero,21150 <jump+0x32c>
	 getSpot(b, x - 2, y - 2) == 'O' &&
   210b8:	e0800417 	ldw	r2,16(fp)
   210bc:	108000e0 	cmpeqi	r2,r2,3
   210c0:	1000231e 	bne	r2,zero,21150 <jump+0x32c>
	 dir != DIR_BR) {
      pushStack(&stack, x - 1, y - 1);
   210c4:	e0bffe17 	ldw	r2,-8(fp)
   210c8:	10bfffc4 	addi	r2,r2,-1
   210cc:	10803fcc 	andi	r2,r2,255
   210d0:	e0ffff17 	ldw	r3,-4(fp)
   210d4:	18ffffc4 	addi	r3,r3,-1
   210d8:	18c03fcc 	andi	r3,r3,255
   210dc:	180d883a 	mov	r6,r3
   210e0:	100b883a 	mov	r5,r2
   210e4:	01000134 	movhi	r4,4
   210e8:	21271704 	addi	r4,r4,-25508
   210ec:	002140c0 	call	2140c <pushStack>
      tl = jump(b, piece, x - 2, y - 2, nx, ny, DIR_TL);
   210f0:	e0fffd07 	ldb	r3,-12(fp)
   210f4:	e0bffe17 	ldw	r2,-8(fp)
   210f8:	113fff84 	addi	r4,r2,-2
   210fc:	e0bfff17 	ldw	r2,-4(fp)
   21100:	117fff84 	addi	r5,r2,-2
   21104:	d8000215 	stw	zero,8(sp)
   21108:	e0800317 	ldw	r2,12(fp)
   2110c:	d8800115 	stw	r2,4(sp)
   21110:	e0800217 	ldw	r2,8(fp)
   21114:	d8800015 	stw	r2,0(sp)
   21118:	280f883a 	mov	r7,r5
   2111c:	200d883a 	mov	r6,r4
   21120:	180b883a 	mov	r5,r3
   21124:	e13ffc17 	ldw	r4,-16(fp)
   21128:	0020e240 	call	20e24 <jump>
   2112c:	e0bff815 	stw	r2,-32(fp)
      if (!tl) {
   21130:	e0bff817 	ldw	r2,-32(fp)
   21134:	1000041e 	bne	r2,zero,21148 <jump+0x324>
	popStack(&stack);
   21138:	01000134 	movhi	r4,4
   2113c:	21271704 	addi	r4,r4,-25508
   21140:	00214900 	call	21490 <popStack>
   21144:	00000206 	br	21150 <jump+0x32c>
      } else {
	return tl;
   21148:	e0bff817 	ldw	r2,-32(fp)
   2114c:	0000aa06 	br	213f8 <jump+0x5d4>
      }
    }
    if (piece == 'G') {
   21150:	e0bffd07 	ldb	r2,-12(fp)
   21154:	108011d8 	cmpnei	r2,r2,71
   21158:	10009b1e 	bne	r2,zero,213c8 <jump+0x5a4>
      if ((getSpot(b, x + 1, y + 1) == 'r' ||
   2115c:	e0bffe17 	ldw	r2,-8(fp)
   21160:	10c00044 	addi	r3,r2,1
   21164:	e0bfff17 	ldw	r2,-4(fp)
   21168:	10800044 	addi	r2,r2,1
   2116c:	100d883a 	mov	r6,r2
   21170:	180b883a 	mov	r5,r3
   21174:	e13ffc17 	ldw	r4,-16(fp)
   21178:	00205bc0 	call	205bc <getSpot>
   2117c:	10803fcc 	andi	r2,r2,255
   21180:	1080201c 	xori	r2,r2,128
   21184:	10bfe004 	addi	r2,r2,-128
   21188:	10801ca0 	cmpeqi	r2,r2,114
   2118c:	10000d1e 	bne	r2,zero,211c4 <jump+0x3a0>
	   getSpot(b, x + 1, y + 1) == 'R') &&
   21190:	e0bffe17 	ldw	r2,-8(fp)
   21194:	10c00044 	addi	r3,r2,1
   21198:	e0bfff17 	ldw	r2,-4(fp)
   2119c:	10800044 	addi	r2,r2,1
   211a0:	100d883a 	mov	r6,r2
   211a4:	180b883a 	mov	r5,r3
   211a8:	e13ffc17 	ldw	r4,-16(fp)
   211ac:	00205bc0 	call	205bc <getSpot>
      } else {
	return tl;
      }
    }
    if (piece == 'G') {
      if ((getSpot(b, x + 1, y + 1) == 'r' ||
   211b0:	10803fcc 	andi	r2,r2,255
   211b4:	1080201c 	xori	r2,r2,128
   211b8:	10bfe004 	addi	r2,r2,-128
   211bc:	10801498 	cmpnei	r2,r2,82
   211c0:	1000331e 	bne	r2,zero,21290 <jump+0x46c>
	   getSpot(b, x + 1, y + 1) == 'R') &&
	   getSpot(b, x + 2, y + 2) == 'O' &&
   211c4:	e0bffe17 	ldw	r2,-8(fp)
   211c8:	10c00084 	addi	r3,r2,2
   211cc:	e0bfff17 	ldw	r2,-4(fp)
   211d0:	10800084 	addi	r2,r2,2
   211d4:	100d883a 	mov	r6,r2
   211d8:	180b883a 	mov	r5,r3
   211dc:	e13ffc17 	ldw	r4,-16(fp)
   211e0:	00205bc0 	call	205bc <getSpot>
	return tl;
      }
    }
    if (piece == 'G') {
      if ((getSpot(b, x + 1, y + 1) == 'r' ||
	   getSpot(b, x + 1, y + 1) == 'R') &&
   211e4:	10803fcc 	andi	r2,r2,255
   211e8:	1080201c 	xori	r2,r2,128
   211ec:	10bfe004 	addi	r2,r2,-128
   211f0:	108013d8 	cmpnei	r2,r2,79
   211f4:	1000261e 	bne	r2,zero,21290 <jump+0x46c>
	   getSpot(b, x + 2, y + 2) == 'O' &&
   211f8:	e0800417 	ldw	r2,16(fp)
   211fc:	10002426 	beq	r2,zero,21290 <jump+0x46c>
	   dir != DIR_TL) {
	pushStack(&stack, x + 1, y + 1);
   21200:	e0bffe17 	ldw	r2,-8(fp)
   21204:	10800044 	addi	r2,r2,1
   21208:	10803fcc 	andi	r2,r2,255
   2120c:	e0ffff17 	ldw	r3,-4(fp)
   21210:	18c00044 	addi	r3,r3,1
   21214:	18c03fcc 	andi	r3,r3,255
   21218:	180d883a 	mov	r6,r3
   2121c:	100b883a 	mov	r5,r2
   21220:	01000134 	movhi	r4,4
   21224:	21271704 	addi	r4,r4,-25508
   21228:	002140c0 	call	2140c <pushStack>
	br = jump(b, piece, x + 2, y + 2, nx, ny, DIR_BR);
   2122c:	e0fffd07 	ldb	r3,-12(fp)
   21230:	e0bffe17 	ldw	r2,-8(fp)
   21234:	11000084 	addi	r4,r2,2
   21238:	e0bfff17 	ldw	r2,-4(fp)
   2123c:	11400084 	addi	r5,r2,2
   21240:	008000c4 	movi	r2,3
   21244:	d8800215 	stw	r2,8(sp)
   21248:	e0800317 	ldw	r2,12(fp)
   2124c:	d8800115 	stw	r2,4(sp)
   21250:	e0800217 	ldw	r2,8(fp)
   21254:	d8800015 	stw	r2,0(sp)
   21258:	280f883a 	mov	r7,r5
   2125c:	200d883a 	mov	r6,r4
   21260:	180b883a 	mov	r5,r3
   21264:	e13ffc17 	ldw	r4,-16(fp)
   21268:	0020e240 	call	20e24 <jump>
   2126c:	e0bffb15 	stw	r2,-20(fp)
	if (!br) {
   21270:	e0bffb17 	ldw	r2,-20(fp)
   21274:	1000041e 	bne	r2,zero,21288 <jump+0x464>
	popStack(&stack);
   21278:	01000134 	movhi	r4,4
   2127c:	21271704 	addi	r4,r4,-25508
   21280:	00214900 	call	21490 <popStack>
   21284:	00000206 	br	21290 <jump+0x46c>
	} else {
	  return br;
   21288:	e0bffb17 	ldw	r2,-20(fp)
   2128c:	00005a06 	br	213f8 <jump+0x5d4>
	}
      }
      if ((getSpot(b, x - 1, y + 1) == 'r' ||
   21290:	e0bffe17 	ldw	r2,-8(fp)
   21294:	10ffffc4 	addi	r3,r2,-1
   21298:	e0bfff17 	ldw	r2,-4(fp)
   2129c:	10800044 	addi	r2,r2,1
   212a0:	100d883a 	mov	r6,r2
   212a4:	180b883a 	mov	r5,r3
   212a8:	e13ffc17 	ldw	r4,-16(fp)
   212ac:	00205bc0 	call	205bc <getSpot>
   212b0:	10803fcc 	andi	r2,r2,255
   212b4:	1080201c 	xori	r2,r2,128
   212b8:	10bfe004 	addi	r2,r2,-128
   212bc:	10801ca0 	cmpeqi	r2,r2,114
   212c0:	10000d1e 	bne	r2,zero,212f8 <jump+0x4d4>
	   getSpot(b, x - 1, y + 1) == 'R') &&
   212c4:	e0bffe17 	ldw	r2,-8(fp)
   212c8:	10ffffc4 	addi	r3,r2,-1
   212cc:	e0bfff17 	ldw	r2,-4(fp)
   212d0:	10800044 	addi	r2,r2,1
   212d4:	100d883a 	mov	r6,r2
   212d8:	180b883a 	mov	r5,r3
   212dc:	e13ffc17 	ldw	r4,-16(fp)
   212e0:	00205bc0 	call	205bc <getSpot>
	popStack(&stack);
	} else {
	  return br;
	}
      }
      if ((getSpot(b, x - 1, y + 1) == 'r' ||
   212e4:	10803fcc 	andi	r2,r2,255
   212e8:	1080201c 	xori	r2,r2,128
   212ec:	10bfe004 	addi	r2,r2,-128
   212f0:	10801498 	cmpnei	r2,r2,82
   212f4:	1000341e 	bne	r2,zero,213c8 <jump+0x5a4>
	   getSpot(b, x - 1, y + 1) == 'R') &&
	   getSpot(b, x - 2, y + 2) == 'O' &&
   212f8:	e0bffe17 	ldw	r2,-8(fp)
   212fc:	10ffff84 	addi	r3,r2,-2
   21300:	e0bfff17 	ldw	r2,-4(fp)
   21304:	10800084 	addi	r2,r2,2
   21308:	100d883a 	mov	r6,r2
   2130c:	180b883a 	mov	r5,r3
   21310:	e13ffc17 	ldw	r4,-16(fp)
   21314:	00205bc0 	call	205bc <getSpot>
	} else {
	  return br;
	}
      }
      if ((getSpot(b, x - 1, y + 1) == 'r' ||
	   getSpot(b, x - 1, y + 1) == 'R') &&
   21318:	10803fcc 	andi	r2,r2,255
   2131c:	1080201c 	xori	r2,r2,128
   21320:	10bfe004 	addi	r2,r2,-128
   21324:	108013d8 	cmpnei	r2,r2,79
   21328:	1000271e 	bne	r2,zero,213c8 <jump+0x5a4>
	   getSpot(b, x - 2, y + 2) == 'O' &&
   2132c:	e0800417 	ldw	r2,16(fp)
   21330:	10800060 	cmpeqi	r2,r2,1
   21334:	1000241e 	bne	r2,zero,213c8 <jump+0x5a4>
	   dir != DIR_TR) {
	pushStack(&stack, x - 1, y + 1);
   21338:	e0bffe17 	ldw	r2,-8(fp)
   2133c:	10bfffc4 	addi	r2,r2,-1
   21340:	10803fcc 	andi	r2,r2,255
   21344:	e0ffff17 	ldw	r3,-4(fp)
   21348:	18c00044 	addi	r3,r3,1
   2134c:	18c03fcc 	andi	r3,r3,255
   21350:	180d883a 	mov	r6,r3
   21354:	100b883a 	mov	r5,r2
   21358:	01000134 	movhi	r4,4
   2135c:	21271704 	addi	r4,r4,-25508
   21360:	002140c0 	call	2140c <pushStack>
	bl = jump(b, piece, x - 2, y + 2, nx, ny, DIR_BL);
   21364:	e0fffd07 	ldb	r3,-12(fp)
   21368:	e0bffe17 	ldw	r2,-8(fp)
   2136c:	113fff84 	addi	r4,r2,-2
   21370:	e0bfff17 	ldw	r2,-4(fp)
   21374:	11400084 	addi	r5,r2,2
   21378:	00800084 	movi	r2,2
   2137c:	d8800215 	stw	r2,8(sp)
   21380:	e0800317 	ldw	r2,12(fp)
   21384:	d8800115 	stw	r2,4(sp)
   21388:	e0800217 	ldw	r2,8(fp)
   2138c:	d8800015 	stw	r2,0(sp)
   21390:	280f883a 	mov	r7,r5
   21394:	200d883a 	mov	r6,r4
   21398:	180b883a 	mov	r5,r3
   2139c:	e13ffc17 	ldw	r4,-16(fp)
   213a0:	0020e240 	call	20e24 <jump>
   213a4:	e0bffa15 	stw	r2,-24(fp)
	if (!bl) {
   213a8:	e0bffa17 	ldw	r2,-24(fp)
   213ac:	1000041e 	bne	r2,zero,213c0 <jump+0x59c>
	  popStack(&stack);
   213b0:	01000134 	movhi	r4,4
   213b4:	21271704 	addi	r4,r4,-25508
   213b8:	00214900 	call	21490 <popStack>
   213bc:	00000206 	br	213c8 <jump+0x5a4>
	} else {
	  return bl;
   213c0:	e0bffa17 	ldw	r2,-24(fp)
   213c4:	00000c06 	br	213f8 <jump+0x5d4>
	}
      }
    }
  return tr || tl || br || bl;
   213c8:	e0bff917 	ldw	r2,-28(fp)
   213cc:	1000061e 	bne	r2,zero,213e8 <jump+0x5c4>
   213d0:	e0bff817 	ldw	r2,-32(fp)
   213d4:	1000041e 	bne	r2,zero,213e8 <jump+0x5c4>
   213d8:	e0bffb17 	ldw	r2,-20(fp)
   213dc:	1000021e 	bne	r2,zero,213e8 <jump+0x5c4>
   213e0:	e0bffa17 	ldw	r2,-24(fp)
   213e4:	10000226 	beq	r2,zero,213f0 <jump+0x5cc>
   213e8:	00800044 	movi	r2,1
   213ec:	00000106 	br	213f4 <jump+0x5d0>
   213f0:	0005883a 	mov	r2,zero
   213f4:	0001883a 	nop
}
   213f8:	e037883a 	mov	sp,fp
   213fc:	dfc00117 	ldw	ra,4(sp)
   21400:	df000017 	ldw	fp,0(sp)
   21404:	dec00204 	addi	sp,sp,8
   21408:	f800283a 	ret

0002140c <pushStack>:

void pushStack(Stack *s, unsigned char x, unsigned char y) {
   2140c:	defffc04 	addi	sp,sp,-16
   21410:	df000315 	stw	fp,12(sp)
   21414:	df000304 	addi	fp,sp,12
   21418:	e13ffd15 	stw	r4,-12(fp)
   2141c:	2807883a 	mov	r3,r5
   21420:	3005883a 	mov	r2,r6
   21424:	e0fffe05 	stb	r3,-8(fp)
   21428:	e0bfff05 	stb	r2,-4(fp)
  s->points[s->index].x = x;
   2142c:	e0bffd17 	ldw	r2,-12(fp)
   21430:	10800317 	ldw	r2,12(r2)
   21434:	e0fffd17 	ldw	r3,-12(fp)
   21438:	1085883a 	add	r2,r2,r2
   2143c:	1885883a 	add	r2,r3,r2
   21440:	e0fffe03 	ldbu	r3,-8(fp)
   21444:	10c00005 	stb	r3,0(r2)
  s->points[s->index].y = y;
   21448:	e0bffd17 	ldw	r2,-12(fp)
   2144c:	10800317 	ldw	r2,12(r2)
   21450:	e0fffd17 	ldw	r3,-12(fp)
   21454:	1085883a 	add	r2,r2,r2
   21458:	1885883a 	add	r2,r3,r2
   2145c:	10800044 	addi	r2,r2,1
   21460:	e0ffff03 	ldbu	r3,-4(fp)
   21464:	10c00005 	stb	r3,0(r2)
  (s->index)++;
   21468:	e0bffd17 	ldw	r2,-12(fp)
   2146c:	10800317 	ldw	r2,12(r2)
   21470:	10c00044 	addi	r3,r2,1
   21474:	e0bffd17 	ldw	r2,-12(fp)
   21478:	10c00315 	stw	r3,12(r2)
}
   2147c:	0001883a 	nop
   21480:	e037883a 	mov	sp,fp
   21484:	df000017 	ldw	fp,0(sp)
   21488:	dec00104 	addi	sp,sp,4
   2148c:	f800283a 	ret

00021490 <popStack>:

Point popStack(Stack *s) {
   21490:	defffd04 	addi	sp,sp,-12
   21494:	df000215 	stw	fp,8(sp)
   21498:	df000204 	addi	fp,sp,8
   2149c:	e13fff15 	stw	r4,-4(fp)
  (s->index)--;
   214a0:	e0bfff17 	ldw	r2,-4(fp)
   214a4:	10800317 	ldw	r2,12(r2)
   214a8:	10ffffc4 	addi	r3,r2,-1
   214ac:	e0bfff17 	ldw	r2,-4(fp)
   214b0:	10c00315 	stw	r3,12(r2)
  return s->points[s->index];
   214b4:	e0bfff17 	ldw	r2,-4(fp)
   214b8:	10800317 	ldw	r2,12(r2)
   214bc:	e0ffff17 	ldw	r3,-4(fp)
   214c0:	1085883a 	add	r2,r2,r2
   214c4:	1885883a 	add	r2,r3,r2
   214c8:	1080000b 	ldhu	r2,0(r2)
   214cc:	e0bffe0d 	sth	r2,-8(fp)
   214d0:	0007883a 	mov	r3,zero
   214d4:	e0bffe03 	ldbu	r2,-8(fp)
   214d8:	10803fcc 	andi	r2,r2,255
   214dc:	013fc004 	movi	r4,-256
   214e0:	1906703a 	and	r3,r3,r4
   214e4:	1884b03a 	or	r2,r3,r2
   214e8:	1007883a 	mov	r3,r2
   214ec:	e0bffe43 	ldbu	r2,-7(fp)
   214f0:	10803fcc 	andi	r2,r2,255
   214f4:	1008923a 	slli	r4,r2,8
   214f8:	00bffff4 	movhi	r2,65535
   214fc:	10803fc4 	addi	r2,r2,255
   21500:	1884703a 	and	r2,r3,r2
   21504:	1104b03a 	or	r2,r2,r4
   21508:	1007883a 	mov	r3,r2
   2150c:	1805883a 	mov	r2,r3
}
   21510:	e037883a 	mov	sp,fp
   21514:	df000017 	ldw	fp,0(sp)
   21518:	dec00104 	addi	sp,sp,4
   2151c:	f800283a 	ret

00021520 <_getc_r>:
   21520:	defffd04 	addi	sp,sp,-12
   21524:	dc000115 	stw	r16,4(sp)
   21528:	dfc00215 	stw	ra,8(sp)
   2152c:	2021883a 	mov	r16,r4
   21530:	20000226 	beq	r4,zero,2153c <_getc_r+0x1c>
   21534:	20800e17 	ldw	r2,56(r4)
   21538:	10000c26 	beq	r2,zero,2156c <_getc_r+0x4c>
   2153c:	28800117 	ldw	r2,4(r5)
   21540:	10bfffc4 	addi	r2,r2,-1
   21544:	28800115 	stw	r2,4(r5)
   21548:	10000c16 	blt	r2,zero,2157c <_getc_r+0x5c>
   2154c:	28800017 	ldw	r2,0(r5)
   21550:	10c00044 	addi	r3,r2,1
   21554:	28c00015 	stw	r3,0(r5)
   21558:	10800003 	ldbu	r2,0(r2)
   2155c:	dfc00217 	ldw	ra,8(sp)
   21560:	dc000117 	ldw	r16,4(sp)
   21564:	dec00304 	addi	sp,sp,12
   21568:	f800283a 	ret
   2156c:	d9400015 	stw	r5,0(sp)
   21570:	00277200 	call	27720 <__sinit>
   21574:	d9400017 	ldw	r5,0(sp)
   21578:	003ff006 	br	2153c <_gp+0xfffe0204>
   2157c:	8009883a 	mov	r4,r16
   21580:	dfc00217 	ldw	ra,8(sp)
   21584:	dc000117 	ldw	r16,4(sp)
   21588:	dec00304 	addi	sp,sp,12
   2158c:	00217781 	jmpi	21778 <__srget_r>

00021590 <getc>:
   21590:	00800134 	movhi	r2,4
   21594:	defffd04 	addi	sp,sp,-12
   21598:	10a4cf04 	addi	r2,r2,-27844
   2159c:	dc400115 	stw	r17,4(sp)
   215a0:	14400017 	ldw	r17,0(r2)
   215a4:	dc000015 	stw	r16,0(sp)
   215a8:	dfc00215 	stw	ra,8(sp)
   215ac:	2021883a 	mov	r16,r4
   215b0:	88000226 	beq	r17,zero,215bc <getc+0x2c>
   215b4:	88800e17 	ldw	r2,56(r17)
   215b8:	10000d26 	beq	r2,zero,215f0 <getc+0x60>
   215bc:	80800117 	ldw	r2,4(r16)
   215c0:	10bfffc4 	addi	r2,r2,-1
   215c4:	80800115 	stw	r2,4(r16)
   215c8:	10000c16 	blt	r2,zero,215fc <getc+0x6c>
   215cc:	80800017 	ldw	r2,0(r16)
   215d0:	10c00044 	addi	r3,r2,1
   215d4:	80c00015 	stw	r3,0(r16)
   215d8:	10800003 	ldbu	r2,0(r2)
   215dc:	dfc00217 	ldw	ra,8(sp)
   215e0:	dc400117 	ldw	r17,4(sp)
   215e4:	dc000017 	ldw	r16,0(sp)
   215e8:	dec00304 	addi	sp,sp,12
   215ec:	f800283a 	ret
   215f0:	8809883a 	mov	r4,r17
   215f4:	00277200 	call	27720 <__sinit>
   215f8:	003ff006 	br	215bc <_gp+0xfffe0284>
   215fc:	800b883a 	mov	r5,r16
   21600:	8809883a 	mov	r4,r17
   21604:	dfc00217 	ldw	ra,8(sp)
   21608:	dc400117 	ldw	r17,4(sp)
   2160c:	dc000017 	ldw	r16,0(sp)
   21610:	dec00304 	addi	sp,sp,12
   21614:	00217781 	jmpi	21778 <__srget_r>

00021618 <_printf_r>:
   21618:	defffd04 	addi	sp,sp,-12
   2161c:	2805883a 	mov	r2,r5
   21620:	dfc00015 	stw	ra,0(sp)
   21624:	d9800115 	stw	r6,4(sp)
   21628:	d9c00215 	stw	r7,8(sp)
   2162c:	21400217 	ldw	r5,8(r4)
   21630:	d9c00104 	addi	r7,sp,4
   21634:	100d883a 	mov	r6,r2
   21638:	00219040 	call	21904 <___vfprintf_internal_r>
   2163c:	dfc00017 	ldw	ra,0(sp)
   21640:	dec00304 	addi	sp,sp,12
   21644:	f800283a 	ret

00021648 <printf>:
   21648:	defffc04 	addi	sp,sp,-16
   2164c:	dfc00015 	stw	ra,0(sp)
   21650:	d9400115 	stw	r5,4(sp)
   21654:	d9800215 	stw	r6,8(sp)
   21658:	d9c00315 	stw	r7,12(sp)
   2165c:	00800134 	movhi	r2,4
   21660:	10a4cf04 	addi	r2,r2,-27844
   21664:	10800017 	ldw	r2,0(r2)
   21668:	200b883a 	mov	r5,r4
   2166c:	d9800104 	addi	r6,sp,4
   21670:	11000217 	ldw	r4,8(r2)
   21674:	0023be00 	call	23be0 <__vfprintf_internal>
   21678:	dfc00017 	ldw	ra,0(sp)
   2167c:	dec00404 	addi	sp,sp,16
   21680:	f800283a 	ret

00021684 <_putchar_r>:
   21684:	21800217 	ldw	r6,8(r4)
   21688:	002a6c41 	jmpi	2a6c4 <_putc_r>

0002168c <putchar>:
   2168c:	00800134 	movhi	r2,4
   21690:	10a4cf04 	addi	r2,r2,-27844
   21694:	200b883a 	mov	r5,r4
   21698:	11000017 	ldw	r4,0(r2)
   2169c:	21800217 	ldw	r6,8(r4)
   216a0:	002a6c41 	jmpi	2a6c4 <_putc_r>

000216a4 <_puts_r>:
   216a4:	defff604 	addi	sp,sp,-40
   216a8:	dc000715 	stw	r16,28(sp)
   216ac:	2021883a 	mov	r16,r4
   216b0:	2809883a 	mov	r4,r5
   216b4:	dc400815 	stw	r17,32(sp)
   216b8:	dfc00915 	stw	ra,36(sp)
   216bc:	2823883a 	mov	r17,r5
   216c0:	002186c0 	call	2186c <strlen>
   216c4:	10c00044 	addi	r3,r2,1
   216c8:	d8800115 	stw	r2,4(sp)
   216cc:	00800134 	movhi	r2,4
   216d0:	10a0e004 	addi	r2,r2,-31872
   216d4:	d8800215 	stw	r2,8(sp)
   216d8:	00800044 	movi	r2,1
   216dc:	d8800315 	stw	r2,12(sp)
   216e0:	00800084 	movi	r2,2
   216e4:	dc400015 	stw	r17,0(sp)
   216e8:	d8c00615 	stw	r3,24(sp)
   216ec:	dec00415 	stw	sp,16(sp)
   216f0:	d8800515 	stw	r2,20(sp)
   216f4:	80000226 	beq	r16,zero,21700 <_puts_r+0x5c>
   216f8:	80800e17 	ldw	r2,56(r16)
   216fc:	10001426 	beq	r2,zero,21750 <_puts_r+0xac>
   21700:	81400217 	ldw	r5,8(r16)
   21704:	2880030b 	ldhu	r2,12(r5)
   21708:	10c8000c 	andi	r3,r2,8192
   2170c:	1800061e 	bne	r3,zero,21728 <_puts_r+0x84>
   21710:	29001917 	ldw	r4,100(r5)
   21714:	00f7ffc4 	movi	r3,-8193
   21718:	10880014 	ori	r2,r2,8192
   2171c:	20c6703a 	and	r3,r4,r3
   21720:	2880030d 	sth	r2,12(r5)
   21724:	28c01915 	stw	r3,100(r5)
   21728:	d9800404 	addi	r6,sp,16
   2172c:	8009883a 	mov	r4,r16
   21730:	0027e140 	call	27e14 <__sfvwrite_r>
   21734:	1000091e 	bne	r2,zero,2175c <_puts_r+0xb8>
   21738:	00800284 	movi	r2,10
   2173c:	dfc00917 	ldw	ra,36(sp)
   21740:	dc400817 	ldw	r17,32(sp)
   21744:	dc000717 	ldw	r16,28(sp)
   21748:	dec00a04 	addi	sp,sp,40
   2174c:	f800283a 	ret
   21750:	8009883a 	mov	r4,r16
   21754:	00277200 	call	27720 <__sinit>
   21758:	003fe906 	br	21700 <_gp+0xfffe03c8>
   2175c:	00bfffc4 	movi	r2,-1
   21760:	003ff606 	br	2173c <_gp+0xfffe0404>

00021764 <puts>:
   21764:	00800134 	movhi	r2,4
   21768:	10a4cf04 	addi	r2,r2,-27844
   2176c:	200b883a 	mov	r5,r4
   21770:	11000017 	ldw	r4,0(r2)
   21774:	00216a41 	jmpi	216a4 <_puts_r>

00021778 <__srget_r>:
   21778:	defffd04 	addi	sp,sp,-12
   2177c:	dc400115 	stw	r17,4(sp)
   21780:	dc000015 	stw	r16,0(sp)
   21784:	dfc00215 	stw	ra,8(sp)
   21788:	2023883a 	mov	r17,r4
   2178c:	2821883a 	mov	r16,r5
   21790:	20000226 	beq	r4,zero,2179c <__srget_r+0x24>
   21794:	20800e17 	ldw	r2,56(r4)
   21798:	10001026 	beq	r2,zero,217dc <__srget_r+0x64>
   2179c:	800b883a 	mov	r5,r16
   217a0:	8809883a 	mov	r4,r17
   217a4:	002adac0 	call	2adac <__srefill_r>
   217a8:	10000e1e 	bne	r2,zero,217e4 <__srget_r+0x6c>
   217ac:	80c00017 	ldw	r3,0(r16)
   217b0:	80800117 	ldw	r2,4(r16)
   217b4:	19000044 	addi	r4,r3,1
   217b8:	10bfffc4 	addi	r2,r2,-1
   217bc:	80800115 	stw	r2,4(r16)
   217c0:	81000015 	stw	r4,0(r16)
   217c4:	18800003 	ldbu	r2,0(r3)
   217c8:	dfc00217 	ldw	ra,8(sp)
   217cc:	dc400117 	ldw	r17,4(sp)
   217d0:	dc000017 	ldw	r16,0(sp)
   217d4:	dec00304 	addi	sp,sp,12
   217d8:	f800283a 	ret
   217dc:	00277200 	call	27720 <__sinit>
   217e0:	003fee06 	br	2179c <_gp+0xfffe0464>
   217e4:	00bfffc4 	movi	r2,-1
   217e8:	003ff706 	br	217c8 <_gp+0xfffe0490>

000217ec <__srget>:
   217ec:	00800134 	movhi	r2,4
   217f0:	10a4cf04 	addi	r2,r2,-27844
   217f4:	200b883a 	mov	r5,r4
   217f8:	11000017 	ldw	r4,0(r2)
   217fc:	00217781 	jmpi	21778 <__srget_r>

00021800 <scanf>:
   21800:	defffc04 	addi	sp,sp,-16
   21804:	dfc00015 	stw	ra,0(sp)
   21808:	d9400115 	stw	r5,4(sp)
   2180c:	d9800215 	stw	r6,8(sp)
   21810:	d9c00315 	stw	r7,12(sp)
   21814:	00800134 	movhi	r2,4
   21818:	10a4cf04 	addi	r2,r2,-27844
   2181c:	200d883a 	mov	r6,r4
   21820:	11000017 	ldw	r4,0(r2)
   21824:	d9c00104 	addi	r7,sp,4
   21828:	21400117 	ldw	r5,4(r4)
   2182c:	00256c80 	call	256c8 <_vfscanf_r>
   21830:	dfc00017 	ldw	ra,0(sp)
   21834:	dec00404 	addi	sp,sp,16
   21838:	f800283a 	ret

0002183c <_scanf_r>:
   2183c:	defffd04 	addi	sp,sp,-12
   21840:	2805883a 	mov	r2,r5
   21844:	dfc00015 	stw	ra,0(sp)
   21848:	d9800115 	stw	r6,4(sp)
   2184c:	d9c00215 	stw	r7,8(sp)
   21850:	21400117 	ldw	r5,4(r4)
   21854:	d9c00104 	addi	r7,sp,4
   21858:	100d883a 	mov	r6,r2
   2185c:	00256c80 	call	256c8 <_vfscanf_r>
   21860:	dfc00017 	ldw	ra,0(sp)
   21864:	dec00304 	addi	sp,sp,12
   21868:	f800283a 	ret

0002186c <strlen>:
   2186c:	208000cc 	andi	r2,r4,3
   21870:	10002026 	beq	r2,zero,218f4 <strlen+0x88>
   21874:	20800007 	ldb	r2,0(r4)
   21878:	10002026 	beq	r2,zero,218fc <strlen+0x90>
   2187c:	2005883a 	mov	r2,r4
   21880:	00000206 	br	2188c <strlen+0x20>
   21884:	10c00007 	ldb	r3,0(r2)
   21888:	18001826 	beq	r3,zero,218ec <strlen+0x80>
   2188c:	10800044 	addi	r2,r2,1
   21890:	10c000cc 	andi	r3,r2,3
   21894:	183ffb1e 	bne	r3,zero,21884 <_gp+0xfffe054c>
   21898:	10c00017 	ldw	r3,0(r2)
   2189c:	01ffbff4 	movhi	r7,65279
   218a0:	39ffbfc4 	addi	r7,r7,-257
   218a4:	00ca303a 	nor	r5,zero,r3
   218a8:	01a02074 	movhi	r6,32897
   218ac:	19c7883a 	add	r3,r3,r7
   218b0:	31a02004 	addi	r6,r6,-32640
   218b4:	1946703a 	and	r3,r3,r5
   218b8:	1986703a 	and	r3,r3,r6
   218bc:	1800091e 	bne	r3,zero,218e4 <strlen+0x78>
   218c0:	10800104 	addi	r2,r2,4
   218c4:	10c00017 	ldw	r3,0(r2)
   218c8:	19cb883a 	add	r5,r3,r7
   218cc:	00c6303a 	nor	r3,zero,r3
   218d0:	28c6703a 	and	r3,r5,r3
   218d4:	1986703a 	and	r3,r3,r6
   218d8:	183ff926 	beq	r3,zero,218c0 <_gp+0xfffe0588>
   218dc:	00000106 	br	218e4 <strlen+0x78>
   218e0:	10800044 	addi	r2,r2,1
   218e4:	10c00007 	ldb	r3,0(r2)
   218e8:	183ffd1e 	bne	r3,zero,218e0 <_gp+0xfffe05a8>
   218ec:	1105c83a 	sub	r2,r2,r4
   218f0:	f800283a 	ret
   218f4:	2005883a 	mov	r2,r4
   218f8:	003fe706 	br	21898 <_gp+0xfffe0560>
   218fc:	0005883a 	mov	r2,zero
   21900:	f800283a 	ret

00021904 <___vfprintf_internal_r>:
   21904:	deffb804 	addi	sp,sp,-288
   21908:	dfc04715 	stw	ra,284(sp)
   2190c:	ddc04515 	stw	r23,276(sp)
   21910:	dd404315 	stw	r21,268(sp)
   21914:	d9002d15 	stw	r4,180(sp)
   21918:	282f883a 	mov	r23,r5
   2191c:	302b883a 	mov	r21,r6
   21920:	d9c02e15 	stw	r7,184(sp)
   21924:	df004615 	stw	fp,280(sp)
   21928:	dd804415 	stw	r22,272(sp)
   2192c:	dd004215 	stw	r20,264(sp)
   21930:	dcc04115 	stw	r19,260(sp)
   21934:	dc804015 	stw	r18,256(sp)
   21938:	dc403f15 	stw	r17,252(sp)
   2193c:	dc003e15 	stw	r16,248(sp)
   21940:	00285400 	call	28540 <_localeconv_r>
   21944:	10800017 	ldw	r2,0(r2)
   21948:	1009883a 	mov	r4,r2
   2194c:	d8803415 	stw	r2,208(sp)
   21950:	002186c0 	call	2186c <strlen>
   21954:	d8803715 	stw	r2,220(sp)
   21958:	d8802d17 	ldw	r2,180(sp)
   2195c:	10000226 	beq	r2,zero,21968 <___vfprintf_internal_r+0x64>
   21960:	10800e17 	ldw	r2,56(r2)
   21964:	1000fb26 	beq	r2,zero,21d54 <___vfprintf_internal_r+0x450>
   21968:	b880030b 	ldhu	r2,12(r23)
   2196c:	10c8000c 	andi	r3,r2,8192
   21970:	1800061e 	bne	r3,zero,2198c <___vfprintf_internal_r+0x88>
   21974:	b9001917 	ldw	r4,100(r23)
   21978:	00f7ffc4 	movi	r3,-8193
   2197c:	10880014 	ori	r2,r2,8192
   21980:	20c6703a 	and	r3,r4,r3
   21984:	b880030d 	sth	r2,12(r23)
   21988:	b8c01915 	stw	r3,100(r23)
   2198c:	10c0020c 	andi	r3,r2,8
   21990:	1800c326 	beq	r3,zero,21ca0 <___vfprintf_internal_r+0x39c>
   21994:	b8c00417 	ldw	r3,16(r23)
   21998:	1800c126 	beq	r3,zero,21ca0 <___vfprintf_internal_r+0x39c>
   2199c:	1080068c 	andi	r2,r2,26
   219a0:	00c00284 	movi	r3,10
   219a4:	10c0c626 	beq	r2,r3,21cc0 <___vfprintf_internal_r+0x3bc>
   219a8:	d8c00404 	addi	r3,sp,16
   219ac:	05000134 	movhi	r20,4
   219b0:	d9001e04 	addi	r4,sp,120
   219b4:	a520f184 	addi	r20,r20,-31802
   219b8:	d8c01e15 	stw	r3,120(sp)
   219bc:	d8002015 	stw	zero,128(sp)
   219c0:	d8001f15 	stw	zero,124(sp)
   219c4:	d8003315 	stw	zero,204(sp)
   219c8:	d8003615 	stw	zero,216(sp)
   219cc:	d8003815 	stw	zero,224(sp)
   219d0:	1811883a 	mov	r8,r3
   219d4:	d8003915 	stw	zero,228(sp)
   219d8:	d8003a15 	stw	zero,232(sp)
   219dc:	d8002f15 	stw	zero,188(sp)
   219e0:	d9002815 	stw	r4,160(sp)
   219e4:	a8800007 	ldb	r2,0(r21)
   219e8:	10028b26 	beq	r2,zero,22418 <___vfprintf_internal_r+0xb14>
   219ec:	00c00944 	movi	r3,37
   219f0:	a823883a 	mov	r17,r21
   219f4:	10c0021e 	bne	r2,r3,21a00 <___vfprintf_internal_r+0xfc>
   219f8:	00001406 	br	21a4c <___vfprintf_internal_r+0x148>
   219fc:	10c00326 	beq	r2,r3,21a0c <___vfprintf_internal_r+0x108>
   21a00:	8c400044 	addi	r17,r17,1
   21a04:	88800007 	ldb	r2,0(r17)
   21a08:	103ffc1e 	bne	r2,zero,219fc <_gp+0xfffe06c4>
   21a0c:	8d61c83a 	sub	r16,r17,r21
   21a10:	80000e26 	beq	r16,zero,21a4c <___vfprintf_internal_r+0x148>
   21a14:	d8c02017 	ldw	r3,128(sp)
   21a18:	d8801f17 	ldw	r2,124(sp)
   21a1c:	45400015 	stw	r21,0(r8)
   21a20:	1c07883a 	add	r3,r3,r16
   21a24:	10800044 	addi	r2,r2,1
   21a28:	d8c02015 	stw	r3,128(sp)
   21a2c:	44000115 	stw	r16,4(r8)
   21a30:	d8801f15 	stw	r2,124(sp)
   21a34:	00c001c4 	movi	r3,7
   21a38:	1880a916 	blt	r3,r2,21ce0 <___vfprintf_internal_r+0x3dc>
   21a3c:	42000204 	addi	r8,r8,8
   21a40:	d9402f17 	ldw	r5,188(sp)
   21a44:	2c0b883a 	add	r5,r5,r16
   21a48:	d9402f15 	stw	r5,188(sp)
   21a4c:	88800007 	ldb	r2,0(r17)
   21a50:	1000aa26 	beq	r2,zero,21cfc <___vfprintf_internal_r+0x3f8>
   21a54:	8d400044 	addi	r21,r17,1
   21a58:	8c400047 	ldb	r17,1(r17)
   21a5c:	0021883a 	mov	r16,zero
   21a60:	00bfffc4 	movi	r2,-1
   21a64:	0025883a 	mov	r18,zero
   21a68:	dc002905 	stb	r16,164(sp)
   21a6c:	d8002785 	stb	zero,158(sp)
   21a70:	d8002b05 	stb	zero,172(sp)
   21a74:	d8802a15 	stw	r2,168(sp)
   21a78:	d8003115 	stw	zero,196(sp)
   21a7c:	04c01604 	movi	r19,88
   21a80:	05800244 	movi	r22,9
   21a84:	9021883a 	mov	r16,r18
   21a88:	4039883a 	mov	fp,r8
   21a8c:	ad400044 	addi	r21,r21,1
   21a90:	88bff804 	addi	r2,r17,-32
   21a94:	98833236 	bltu	r19,r2,22760 <___vfprintf_internal_r+0xe5c>
   21a98:	100490ba 	slli	r2,r2,2
   21a9c:	00c000b4 	movhi	r3,2
   21aa0:	18c6ac04 	addi	r3,r3,6832
   21aa4:	10c5883a 	add	r2,r2,r3
   21aa8:	10800017 	ldw	r2,0(r2)
   21aac:	1000683a 	jmp	r2
   21ab0:	00022658 	cmpnei	zero,zero,2201
   21ab4:	00022760 	cmpeqi	zero,zero,2205
   21ab8:	00022760 	cmpeqi	zero,zero,2205
   21abc:	00022678 	rdprs	zero,zero,2201
   21ac0:	00022760 	cmpeqi	zero,zero,2205
   21ac4:	00022760 	cmpeqi	zero,zero,2205
   21ac8:	00022760 	cmpeqi	zero,zero,2205
   21acc:	00022760 	cmpeqi	zero,zero,2205
   21ad0:	00022760 	cmpeqi	zero,zero,2205
   21ad4:	00022760 	cmpeqi	zero,zero,2205
   21ad8:	00021d60 	cmpeqi	zero,zero,2165
   21adc:	00022568 	cmpgeui	zero,zero,2197
   21ae0:	00022760 	cmpeqi	zero,zero,2205
   21ae4:	00021c24 	muli	zero,zero,2160
   21ae8:	00021d84 	movi	zero,2166
   21aec:	00022760 	cmpeqi	zero,zero,2205
   21af0:	00021dd4 	movui	zero,2167
   21af4:	00021de0 	cmpeqi	zero,zero,2167
   21af8:	00021de0 	cmpeqi	zero,zero,2167
   21afc:	00021de0 	cmpeqi	zero,zero,2167
   21b00:	00021de0 	cmpeqi	zero,zero,2167
   21b04:	00021de0 	cmpeqi	zero,zero,2167
   21b08:	00021de0 	cmpeqi	zero,zero,2167
   21b0c:	00021de0 	cmpeqi	zero,zero,2167
   21b10:	00021de0 	cmpeqi	zero,zero,2167
   21b14:	00021de0 	cmpeqi	zero,zero,2167
   21b18:	00022760 	cmpeqi	zero,zero,2205
   21b1c:	00022760 	cmpeqi	zero,zero,2205
   21b20:	00022760 	cmpeqi	zero,zero,2205
   21b24:	00022760 	cmpeqi	zero,zero,2205
   21b28:	00022760 	cmpeqi	zero,zero,2205
   21b2c:	00022760 	cmpeqi	zero,zero,2205
   21b30:	00022760 	cmpeqi	zero,zero,2205
   21b34:	00022760 	cmpeqi	zero,zero,2205
   21b38:	00022760 	cmpeqi	zero,zero,2205
   21b3c:	00022760 	cmpeqi	zero,zero,2205
   21b40:	00021e1c 	xori	zero,zero,2168
   21b44:	00021ee4 	muli	zero,zero,2171
   21b48:	00022760 	cmpeqi	zero,zero,2205
   21b4c:	00021ee4 	muli	zero,zero,2171
   21b50:	00022760 	cmpeqi	zero,zero,2205
   21b54:	00022760 	cmpeqi	zero,zero,2205
   21b58:	00022760 	cmpeqi	zero,zero,2205
   21b5c:	00022760 	cmpeqi	zero,zero,2205
   21b60:	00021f90 	cmplti	zero,zero,2174
   21b64:	00022760 	cmpeqi	zero,zero,2205
   21b68:	00022760 	cmpeqi	zero,zero,2205
   21b6c:	00021f9c 	xori	zero,zero,2174
   21b70:	00022760 	cmpeqi	zero,zero,2205
   21b74:	00022760 	cmpeqi	zero,zero,2205
   21b78:	00022760 	cmpeqi	zero,zero,2205
   21b7c:	00022760 	cmpeqi	zero,zero,2205
   21b80:	00022760 	cmpeqi	zero,zero,2205
   21b84:	00022420 	cmpeqi	zero,zero,2192
   21b88:	00022760 	cmpeqi	zero,zero,2205
   21b8c:	00022760 	cmpeqi	zero,zero,2205
   21b90:	0002248c 	andi	zero,zero,2194
   21b94:	00022760 	cmpeqi	zero,zero,2205
   21b98:	00022760 	cmpeqi	zero,zero,2205
   21b9c:	00022760 	cmpeqi	zero,zero,2205
   21ba0:	00022760 	cmpeqi	zero,zero,2205
   21ba4:	00022760 	cmpeqi	zero,zero,2205
   21ba8:	00022760 	cmpeqi	zero,zero,2205
   21bac:	00022760 	cmpeqi	zero,zero,2205
   21bb0:	00022760 	cmpeqi	zero,zero,2205
   21bb4:	00022760 	cmpeqi	zero,zero,2205
   21bb8:	00022760 	cmpeqi	zero,zero,2205
   21bbc:	00022704 	movi	zero,2204
   21bc0:	00022684 	movi	zero,2202
   21bc4:	00021ee4 	muli	zero,zero,2171
   21bc8:	00021ee4 	muli	zero,zero,2171
   21bcc:	00021ee4 	muli	zero,zero,2171
   21bd0:	000226a4 	muli	zero,zero,2202
   21bd4:	00022684 	movi	zero,2202
   21bd8:	00022760 	cmpeqi	zero,zero,2205
   21bdc:	00022760 	cmpeqi	zero,zero,2205
   21be0:	000226b0 	cmpltui	zero,zero,2202
   21be4:	00022760 	cmpeqi	zero,zero,2205
   21be8:	000226c4 	movi	zero,2203
   21bec:	00022548 	cmpgei	zero,zero,2197
   21bf0:	00021c30 	cmpltui	zero,zero,2160
   21bf4:	00022580 	call	2258 <__alt_mem_onchip_memory2_0-0x1dda8>
   21bf8:	00022760 	cmpeqi	zero,zero,2205
   21bfc:	0002258c 	andi	zero,zero,2198
   21c00:	00022760 	cmpeqi	zero,zero,2205
   21c04:	000225f0 	cmpltui	zero,zero,2199
   21c08:	00022760 	cmpeqi	zero,zero,2205
   21c0c:	00022760 	cmpeqi	zero,zero,2205
   21c10:	00022610 	cmplti	zero,zero,2200
   21c14:	d8c03117 	ldw	r3,196(sp)
   21c18:	d8802e15 	stw	r2,184(sp)
   21c1c:	00c7c83a 	sub	r3,zero,r3
   21c20:	d8c03115 	stw	r3,196(sp)
   21c24:	84000114 	ori	r16,r16,4
   21c28:	ac400007 	ldb	r17,0(r21)
   21c2c:	003f9706 	br	21a8c <_gp+0xfffe0754>
   21c30:	00800c04 	movi	r2,48
   21c34:	d8802705 	stb	r2,156(sp)
   21c38:	00801e04 	movi	r2,120
   21c3c:	d8802745 	stb	r2,157(sp)
   21c40:	d9002a17 	ldw	r4,168(sp)
   21c44:	d8802e17 	ldw	r2,184(sp)
   21c48:	d8002785 	stb	zero,158(sp)
   21c4c:	e011883a 	mov	r8,fp
   21c50:	10c00104 	addi	r3,r2,4
   21c54:	14c00017 	ldw	r19,0(r2)
   21c58:	002d883a 	mov	r22,zero
   21c5c:	80800094 	ori	r2,r16,2
   21c60:	2002ca16 	blt	r4,zero,2278c <___vfprintf_internal_r+0xe88>
   21c64:	00bfdfc4 	movi	r2,-129
   21c68:	80a4703a 	and	r18,r16,r2
   21c6c:	d8c02e15 	stw	r3,184(sp)
   21c70:	94800094 	ori	r18,r18,2
   21c74:	9802b41e 	bne	r19,zero,22748 <___vfprintf_internal_r+0xe44>
   21c78:	01400134 	movhi	r5,4
   21c7c:	2960ea04 	addi	r5,r5,-31832
   21c80:	d9403915 	stw	r5,228(sp)
   21c84:	04401e04 	movi	r17,120
   21c88:	d8802a17 	ldw	r2,168(sp)
   21c8c:	0039883a 	mov	fp,zero
   21c90:	1001fa26 	beq	r2,zero,2247c <___vfprintf_internal_r+0xb78>
   21c94:	0027883a 	mov	r19,zero
   21c98:	002d883a 	mov	r22,zero
   21c9c:	00021906 	br	22504 <___vfprintf_internal_r+0xc00>
   21ca0:	d9002d17 	ldw	r4,180(sp)
   21ca4:	b80b883a 	mov	r5,r23
   21ca8:	00257140 	call	25714 <__swsetup_r>
   21cac:	1005dc1e 	bne	r2,zero,23420 <___vfprintf_internal_r+0x1b1c>
   21cb0:	b880030b 	ldhu	r2,12(r23)
   21cb4:	00c00284 	movi	r3,10
   21cb8:	1080068c 	andi	r2,r2,26
   21cbc:	10ff3a1e 	bne	r2,r3,219a8 <_gp+0xfffe0670>
   21cc0:	b880038f 	ldh	r2,14(r23)
   21cc4:	103f3816 	blt	r2,zero,219a8 <_gp+0xfffe0670>
   21cc8:	d9c02e17 	ldw	r7,184(sp)
   21ccc:	d9002d17 	ldw	r4,180(sp)
   21cd0:	a80d883a 	mov	r6,r21
   21cd4:	b80b883a 	mov	r5,r23
   21cd8:	0023bfc0 	call	23bfc <__sbprintf>
   21cdc:	00001106 	br	21d24 <___vfprintf_internal_r+0x420>
   21ce0:	d9002d17 	ldw	r4,180(sp)
   21ce4:	d9801e04 	addi	r6,sp,120
   21ce8:	b80b883a 	mov	r5,r23
   21cec:	002fcc00 	call	2fcc0 <__sprint_r>
   21cf0:	1000081e 	bne	r2,zero,21d14 <___vfprintf_internal_r+0x410>
   21cf4:	da000404 	addi	r8,sp,16
   21cf8:	003f5106 	br	21a40 <_gp+0xfffe0708>
   21cfc:	d8802017 	ldw	r2,128(sp)
   21d00:	10000426 	beq	r2,zero,21d14 <___vfprintf_internal_r+0x410>
   21d04:	d9002d17 	ldw	r4,180(sp)
   21d08:	d9801e04 	addi	r6,sp,120
   21d0c:	b80b883a 	mov	r5,r23
   21d10:	002fcc00 	call	2fcc0 <__sprint_r>
   21d14:	b880030b 	ldhu	r2,12(r23)
   21d18:	1080100c 	andi	r2,r2,64
   21d1c:	1005c01e 	bne	r2,zero,23420 <___vfprintf_internal_r+0x1b1c>
   21d20:	d8802f17 	ldw	r2,188(sp)
   21d24:	dfc04717 	ldw	ra,284(sp)
   21d28:	df004617 	ldw	fp,280(sp)
   21d2c:	ddc04517 	ldw	r23,276(sp)
   21d30:	dd804417 	ldw	r22,272(sp)
   21d34:	dd404317 	ldw	r21,268(sp)
   21d38:	dd004217 	ldw	r20,264(sp)
   21d3c:	dcc04117 	ldw	r19,260(sp)
   21d40:	dc804017 	ldw	r18,256(sp)
   21d44:	dc403f17 	ldw	r17,252(sp)
   21d48:	dc003e17 	ldw	r16,248(sp)
   21d4c:	dec04804 	addi	sp,sp,288
   21d50:	f800283a 	ret
   21d54:	d9002d17 	ldw	r4,180(sp)
   21d58:	00277200 	call	27720 <__sinit>
   21d5c:	003f0206 	br	21968 <_gp+0xfffe0630>
   21d60:	d9002e17 	ldw	r4,184(sp)
   21d64:	d9402e17 	ldw	r5,184(sp)
   21d68:	21000017 	ldw	r4,0(r4)
   21d6c:	28800104 	addi	r2,r5,4
   21d70:	d9003115 	stw	r4,196(sp)
   21d74:	203fa716 	blt	r4,zero,21c14 <_gp+0xfffe08dc>
   21d78:	d8802e15 	stw	r2,184(sp)
   21d7c:	ac400007 	ldb	r17,0(r21)
   21d80:	003f4206 	br	21a8c <_gp+0xfffe0754>
   21d84:	ac400007 	ldb	r17,0(r21)
   21d88:	01000a84 	movi	r4,42
   21d8c:	a8c00044 	addi	r3,r21,1
   21d90:	89075826 	beq	r17,r4,23af4 <___vfprintf_internal_r+0x21f0>
   21d94:	8cbff404 	addi	r18,r17,-48
   21d98:	b486ae36 	bltu	r22,r18,23854 <___vfprintf_internal_r+0x1f50>
   21d9c:	0009883a 	mov	r4,zero
   21da0:	1823883a 	mov	r17,r3
   21da4:	01400284 	movi	r5,10
   21da8:	0034cf00 	call	34cf0 <__mulsi3>
   21dac:	88c00007 	ldb	r3,0(r17)
   21db0:	1489883a 	add	r4,r2,r18
   21db4:	8d400044 	addi	r21,r17,1
   21db8:	1cbff404 	addi	r18,r3,-48
   21dbc:	a823883a 	mov	r17,r21
   21dc0:	b4bff82e 	bgeu	r22,r18,21da4 <_gp+0xfffe0a6c>
   21dc4:	1823883a 	mov	r17,r3
   21dc8:	2005f616 	blt	r4,zero,235a4 <___vfprintf_internal_r+0x1ca0>
   21dcc:	d9002a15 	stw	r4,168(sp)
   21dd0:	003f2f06 	br	21a90 <_gp+0xfffe0758>
   21dd4:	84002014 	ori	r16,r16,128
   21dd8:	ac400007 	ldb	r17,0(r21)
   21ddc:	003f2b06 	br	21a8c <_gp+0xfffe0754>
   21de0:	8cbff404 	addi	r18,r17,-48
   21de4:	d8003115 	stw	zero,196(sp)
   21de8:	0009883a 	mov	r4,zero
   21dec:	a823883a 	mov	r17,r21
   21df0:	01400284 	movi	r5,10
   21df4:	0034cf00 	call	34cf0 <__mulsi3>
   21df8:	88c00007 	ldb	r3,0(r17)
   21dfc:	9089883a 	add	r4,r18,r2
   21e00:	ad400044 	addi	r21,r21,1
   21e04:	1cbff404 	addi	r18,r3,-48
   21e08:	a823883a 	mov	r17,r21
   21e0c:	b4bff82e 	bgeu	r22,r18,21df0 <_gp+0xfffe0ab8>
   21e10:	1823883a 	mov	r17,r3
   21e14:	d9003115 	stw	r4,196(sp)
   21e18:	003f1d06 	br	21a90 <_gp+0xfffe0758>
   21e1c:	8025883a 	mov	r18,r16
   21e20:	dc002903 	ldbu	r16,164(sp)
   21e24:	e011883a 	mov	r8,fp
   21e28:	84003fcc 	andi	r16,r16,255
   21e2c:	8007531e 	bne	r16,zero,23b7c <___vfprintf_internal_r+0x2278>
   21e30:	94800414 	ori	r18,r18,16
   21e34:	9080080c 	andi	r2,r18,32
   21e38:	1003a326 	beq	r2,zero,22cc8 <___vfprintf_internal_r+0x13c4>
   21e3c:	d9002e17 	ldw	r4,184(sp)
   21e40:	20800117 	ldw	r2,4(r4)
   21e44:	24c00017 	ldw	r19,0(r4)
   21e48:	21000204 	addi	r4,r4,8
   21e4c:	d9002e15 	stw	r4,184(sp)
   21e50:	102d883a 	mov	r22,r2
   21e54:	10047316 	blt	r2,zero,23024 <___vfprintf_internal_r+0x1720>
   21e58:	d9002a17 	ldw	r4,168(sp)
   21e5c:	df002783 	ldbu	fp,158(sp)
   21e60:	2003e416 	blt	r4,zero,22df4 <___vfprintf_internal_r+0x14f0>
   21e64:	00ffdfc4 	movi	r3,-129
   21e68:	9d84b03a 	or	r2,r19,r22
   21e6c:	90e4703a 	and	r18,r18,r3
   21e70:	10018026 	beq	r2,zero,22474 <___vfprintf_internal_r+0xb70>
   21e74:	b003ab26 	beq	r22,zero,22d24 <___vfprintf_internal_r+0x1420>
   21e78:	dc402915 	stw	r17,164(sp)
   21e7c:	dc001e04 	addi	r16,sp,120
   21e80:	b023883a 	mov	r17,r22
   21e84:	402d883a 	mov	r22,r8
   21e88:	9809883a 	mov	r4,r19
   21e8c:	880b883a 	mov	r5,r17
   21e90:	01800284 	movi	r6,10
   21e94:	000f883a 	mov	r7,zero
   21e98:	00345780 	call	34578 <__umoddi3>
   21e9c:	10800c04 	addi	r2,r2,48
   21ea0:	843fffc4 	addi	r16,r16,-1
   21ea4:	9809883a 	mov	r4,r19
   21ea8:	880b883a 	mov	r5,r17
   21eac:	80800005 	stb	r2,0(r16)
   21eb0:	01800284 	movi	r6,10
   21eb4:	000f883a 	mov	r7,zero
   21eb8:	0033f7c0 	call	33f7c <__udivdi3>
   21ebc:	1027883a 	mov	r19,r2
   21ec0:	10c4b03a 	or	r2,r2,r3
   21ec4:	1823883a 	mov	r17,r3
   21ec8:	103fef1e 	bne	r2,zero,21e88 <_gp+0xfffe0b50>
   21ecc:	d8c02817 	ldw	r3,160(sp)
   21ed0:	dc402917 	ldw	r17,164(sp)
   21ed4:	b011883a 	mov	r8,r22
   21ed8:	1c07c83a 	sub	r3,r3,r16
   21edc:	d8c02b15 	stw	r3,172(sp)
   21ee0:	00005f06 	br	22060 <___vfprintf_internal_r+0x75c>
   21ee4:	8025883a 	mov	r18,r16
   21ee8:	dc002903 	ldbu	r16,164(sp)
   21eec:	e011883a 	mov	r8,fp
   21ef0:	84003fcc 	andi	r16,r16,255
   21ef4:	80071e1e 	bne	r16,zero,23b70 <___vfprintf_internal_r+0x226c>
   21ef8:	9080020c 	andi	r2,r18,8
   21efc:	1004af26 	beq	r2,zero,231bc <___vfprintf_internal_r+0x18b8>
   21f00:	d9002e17 	ldw	r4,184(sp)
   21f04:	d9402e17 	ldw	r5,184(sp)
   21f08:	d8802e17 	ldw	r2,184(sp)
   21f0c:	21000017 	ldw	r4,0(r4)
   21f10:	29400117 	ldw	r5,4(r5)
   21f14:	10800204 	addi	r2,r2,8
   21f18:	d9003615 	stw	r4,216(sp)
   21f1c:	d9403815 	stw	r5,224(sp)
   21f20:	d8802e15 	stw	r2,184(sp)
   21f24:	d9003617 	ldw	r4,216(sp)
   21f28:	d9403817 	ldw	r5,224(sp)
   21f2c:	da003d15 	stw	r8,244(sp)
   21f30:	04000044 	movi	r16,1
   21f34:	002af800 	call	2af80 <__fpclassifyd>
   21f38:	da003d17 	ldw	r8,244(sp)
   21f3c:	1404441e 	bne	r2,r16,23050 <___vfprintf_internal_r+0x174c>
   21f40:	d9003617 	ldw	r4,216(sp)
   21f44:	d9403817 	ldw	r5,224(sp)
   21f48:	000d883a 	mov	r6,zero
   21f4c:	000f883a 	mov	r7,zero
   21f50:	00362f40 	call	362f4 <__ledf2>
   21f54:	da003d17 	ldw	r8,244(sp)
   21f58:	1005e316 	blt	r2,zero,236e8 <___vfprintf_internal_r+0x1de4>
   21f5c:	df002783 	ldbu	fp,158(sp)
   21f60:	008011c4 	movi	r2,71
   21f64:	1445580e 	bge	r2,r17,234c8 <___vfprintf_internal_r+0x1bc4>
   21f68:	04000134 	movhi	r16,4
   21f6c:	8420e204 	addi	r16,r16,-31864
   21f70:	00c000c4 	movi	r3,3
   21f74:	00bfdfc4 	movi	r2,-129
   21f78:	d8c02915 	stw	r3,164(sp)
   21f7c:	90a4703a 	and	r18,r18,r2
   21f80:	d8c02b15 	stw	r3,172(sp)
   21f84:	d8002a15 	stw	zero,168(sp)
   21f88:	d8003215 	stw	zero,200(sp)
   21f8c:	00003a06 	br	22078 <___vfprintf_internal_r+0x774>
   21f90:	84000214 	ori	r16,r16,8
   21f94:	ac400007 	ldb	r17,0(r21)
   21f98:	003ebc06 	br	21a8c <_gp+0xfffe0754>
   21f9c:	8025883a 	mov	r18,r16
   21fa0:	dc002903 	ldbu	r16,164(sp)
   21fa4:	e011883a 	mov	r8,fp
   21fa8:	84003fcc 	andi	r16,r16,255
   21fac:	8007001e 	bne	r16,zero,23bb0 <___vfprintf_internal_r+0x22ac>
   21fb0:	94800414 	ori	r18,r18,16
   21fb4:	9080080c 	andi	r2,r18,32
   21fb8:	1002fa26 	beq	r2,zero,22ba4 <___vfprintf_internal_r+0x12a0>
   21fbc:	d9002e17 	ldw	r4,184(sp)
   21fc0:	d9402a17 	ldw	r5,168(sp)
   21fc4:	d8002785 	stb	zero,158(sp)
   21fc8:	20800204 	addi	r2,r4,8
   21fcc:	24c00017 	ldw	r19,0(r4)
   21fd0:	25800117 	ldw	r22,4(r4)
   21fd4:	2804b116 	blt	r5,zero,2329c <___vfprintf_internal_r+0x1998>
   21fd8:	013fdfc4 	movi	r4,-129
   21fdc:	9d86b03a 	or	r3,r19,r22
   21fe0:	d8802e15 	stw	r2,184(sp)
   21fe4:	9124703a 	and	r18,r18,r4
   21fe8:	1802fb1e 	bne	r3,zero,22bd8 <___vfprintf_internal_r+0x12d4>
   21fec:	d8c02a17 	ldw	r3,168(sp)
   21ff0:	0039883a 	mov	fp,zero
   21ff4:	1805e526 	beq	r3,zero,2378c <___vfprintf_internal_r+0x1e88>
   21ff8:	0027883a 	mov	r19,zero
   21ffc:	002d883a 	mov	r22,zero
   22000:	dc001e04 	addi	r16,sp,120
   22004:	9806d0fa 	srli	r3,r19,3
   22008:	b008977a 	slli	r4,r22,29
   2200c:	b02cd0fa 	srli	r22,r22,3
   22010:	9cc001cc 	andi	r19,r19,7
   22014:	98800c04 	addi	r2,r19,48
   22018:	843fffc4 	addi	r16,r16,-1
   2201c:	20e6b03a 	or	r19,r4,r3
   22020:	80800005 	stb	r2,0(r16)
   22024:	9d86b03a 	or	r3,r19,r22
   22028:	183ff61e 	bne	r3,zero,22004 <_gp+0xfffe0ccc>
   2202c:	90c0004c 	andi	r3,r18,1
   22030:	18014126 	beq	r3,zero,22538 <___vfprintf_internal_r+0xc34>
   22034:	10803fcc 	andi	r2,r2,255
   22038:	1080201c 	xori	r2,r2,128
   2203c:	10bfe004 	addi	r2,r2,-128
   22040:	00c00c04 	movi	r3,48
   22044:	10c13c26 	beq	r2,r3,22538 <___vfprintf_internal_r+0xc34>
   22048:	80ffffc5 	stb	r3,-1(r16)
   2204c:	d8c02817 	ldw	r3,160(sp)
   22050:	80bfffc4 	addi	r2,r16,-1
   22054:	1021883a 	mov	r16,r2
   22058:	1887c83a 	sub	r3,r3,r2
   2205c:	d8c02b15 	stw	r3,172(sp)
   22060:	d8802b17 	ldw	r2,172(sp)
   22064:	d9002a17 	ldw	r4,168(sp)
   22068:	1100010e 	bge	r2,r4,22070 <___vfprintf_internal_r+0x76c>
   2206c:	2005883a 	mov	r2,r4
   22070:	d8802915 	stw	r2,164(sp)
   22074:	d8003215 	stw	zero,200(sp)
   22078:	e7003fcc 	andi	fp,fp,255
   2207c:	e700201c 	xori	fp,fp,128
   22080:	e73fe004 	addi	fp,fp,-128
   22084:	e0000326 	beq	fp,zero,22094 <___vfprintf_internal_r+0x790>
   22088:	d8c02917 	ldw	r3,164(sp)
   2208c:	18c00044 	addi	r3,r3,1
   22090:	d8c02915 	stw	r3,164(sp)
   22094:	90c0008c 	andi	r3,r18,2
   22098:	d8c02c15 	stw	r3,176(sp)
   2209c:	18000326 	beq	r3,zero,220ac <___vfprintf_internal_r+0x7a8>
   220a0:	d8c02917 	ldw	r3,164(sp)
   220a4:	18c00084 	addi	r3,r3,2
   220a8:	d8c02915 	stw	r3,164(sp)
   220ac:	90c0210c 	andi	r3,r18,132
   220b0:	d8c03015 	stw	r3,192(sp)
   220b4:	1801c51e 	bne	r3,zero,227cc <___vfprintf_internal_r+0xec8>
   220b8:	d9003117 	ldw	r4,196(sp)
   220bc:	d8c02917 	ldw	r3,164(sp)
   220c0:	20e7c83a 	sub	r19,r4,r3
   220c4:	04c1c10e 	bge	zero,r19,227cc <___vfprintf_internal_r+0xec8>
   220c8:	02400404 	movi	r9,16
   220cc:	d8c02017 	ldw	r3,128(sp)
   220d0:	d8801f17 	ldw	r2,124(sp)
   220d4:	4cc52f0e 	bge	r9,r19,23594 <___vfprintf_internal_r+0x1c90>
   220d8:	01400134 	movhi	r5,4
   220dc:	2960f584 	addi	r5,r5,-31786
   220e0:	dc403b15 	stw	r17,236(sp)
   220e4:	d9403515 	stw	r5,212(sp)
   220e8:	9823883a 	mov	r17,r19
   220ec:	482d883a 	mov	r22,r9
   220f0:	9027883a 	mov	r19,r18
   220f4:	070001c4 	movi	fp,7
   220f8:	8025883a 	mov	r18,r16
   220fc:	dc002d17 	ldw	r16,180(sp)
   22100:	00000306 	br	22110 <___vfprintf_internal_r+0x80c>
   22104:	8c7ffc04 	addi	r17,r17,-16
   22108:	42000204 	addi	r8,r8,8
   2210c:	b440130e 	bge	r22,r17,2215c <___vfprintf_internal_r+0x858>
   22110:	01000134 	movhi	r4,4
   22114:	18c00404 	addi	r3,r3,16
   22118:	10800044 	addi	r2,r2,1
   2211c:	2120f584 	addi	r4,r4,-31786
   22120:	41000015 	stw	r4,0(r8)
   22124:	45800115 	stw	r22,4(r8)
   22128:	d8c02015 	stw	r3,128(sp)
   2212c:	d8801f15 	stw	r2,124(sp)
   22130:	e0bff40e 	bge	fp,r2,22104 <_gp+0xfffe0dcc>
   22134:	d9801e04 	addi	r6,sp,120
   22138:	b80b883a 	mov	r5,r23
   2213c:	8009883a 	mov	r4,r16
   22140:	002fcc00 	call	2fcc0 <__sprint_r>
   22144:	103ef31e 	bne	r2,zero,21d14 <_gp+0xfffe09dc>
   22148:	8c7ffc04 	addi	r17,r17,-16
   2214c:	d8c02017 	ldw	r3,128(sp)
   22150:	d8801f17 	ldw	r2,124(sp)
   22154:	da000404 	addi	r8,sp,16
   22158:	b47fed16 	blt	r22,r17,22110 <_gp+0xfffe0dd8>
   2215c:	9021883a 	mov	r16,r18
   22160:	9825883a 	mov	r18,r19
   22164:	8827883a 	mov	r19,r17
   22168:	dc403b17 	ldw	r17,236(sp)
   2216c:	d9403517 	ldw	r5,212(sp)
   22170:	98c7883a 	add	r3,r19,r3
   22174:	10800044 	addi	r2,r2,1
   22178:	41400015 	stw	r5,0(r8)
   2217c:	44c00115 	stw	r19,4(r8)
   22180:	d8c02015 	stw	r3,128(sp)
   22184:	d8801f15 	stw	r2,124(sp)
   22188:	010001c4 	movi	r4,7
   2218c:	2082c516 	blt	r4,r2,22ca4 <___vfprintf_internal_r+0x13a0>
   22190:	df002787 	ldb	fp,158(sp)
   22194:	42000204 	addi	r8,r8,8
   22198:	e0000c26 	beq	fp,zero,221cc <___vfprintf_internal_r+0x8c8>
   2219c:	d8801f17 	ldw	r2,124(sp)
   221a0:	d9002784 	addi	r4,sp,158
   221a4:	18c00044 	addi	r3,r3,1
   221a8:	10800044 	addi	r2,r2,1
   221ac:	41000015 	stw	r4,0(r8)
   221b0:	01000044 	movi	r4,1
   221b4:	41000115 	stw	r4,4(r8)
   221b8:	d8c02015 	stw	r3,128(sp)
   221bc:	d8801f15 	stw	r2,124(sp)
   221c0:	010001c4 	movi	r4,7
   221c4:	20825e16 	blt	r4,r2,22b40 <___vfprintf_internal_r+0x123c>
   221c8:	42000204 	addi	r8,r8,8
   221cc:	d8802c17 	ldw	r2,176(sp)
   221d0:	10000c26 	beq	r2,zero,22204 <___vfprintf_internal_r+0x900>
   221d4:	d8801f17 	ldw	r2,124(sp)
   221d8:	d9002704 	addi	r4,sp,156
   221dc:	18c00084 	addi	r3,r3,2
   221e0:	10800044 	addi	r2,r2,1
   221e4:	41000015 	stw	r4,0(r8)
   221e8:	01000084 	movi	r4,2
   221ec:	41000115 	stw	r4,4(r8)
   221f0:	d8c02015 	stw	r3,128(sp)
   221f4:	d8801f15 	stw	r2,124(sp)
   221f8:	010001c4 	movi	r4,7
   221fc:	20825816 	blt	r4,r2,22b60 <___vfprintf_internal_r+0x125c>
   22200:	42000204 	addi	r8,r8,8
   22204:	d9003017 	ldw	r4,192(sp)
   22208:	00802004 	movi	r2,128
   2220c:	2081bb26 	beq	r4,r2,228fc <___vfprintf_internal_r+0xff8>
   22210:	d9402a17 	ldw	r5,168(sp)
   22214:	d8802b17 	ldw	r2,172(sp)
   22218:	28adc83a 	sub	r22,r5,r2
   2221c:	0580310e 	bge	zero,r22,222e4 <___vfprintf_internal_r+0x9e0>
   22220:	07000404 	movi	fp,16
   22224:	d8801f17 	ldw	r2,124(sp)
   22228:	e584360e 	bge	fp,r22,23304 <___vfprintf_internal_r+0x1a00>
   2222c:	01400134 	movhi	r5,4
   22230:	2960f184 	addi	r5,r5,-31802
   22234:	dc402a15 	stw	r17,168(sp)
   22238:	d9402c15 	stw	r5,176(sp)
   2223c:	b023883a 	mov	r17,r22
   22240:	04c001c4 	movi	r19,7
   22244:	a82d883a 	mov	r22,r21
   22248:	902b883a 	mov	r21,r18
   2224c:	8025883a 	mov	r18,r16
   22250:	dc002d17 	ldw	r16,180(sp)
   22254:	00000306 	br	22264 <___vfprintf_internal_r+0x960>
   22258:	8c7ffc04 	addi	r17,r17,-16
   2225c:	42000204 	addi	r8,r8,8
   22260:	e440110e 	bge	fp,r17,222a8 <___vfprintf_internal_r+0x9a4>
   22264:	18c00404 	addi	r3,r3,16
   22268:	10800044 	addi	r2,r2,1
   2226c:	45000015 	stw	r20,0(r8)
   22270:	47000115 	stw	fp,4(r8)
   22274:	d8c02015 	stw	r3,128(sp)
   22278:	d8801f15 	stw	r2,124(sp)
   2227c:	98bff60e 	bge	r19,r2,22258 <_gp+0xfffe0f20>
   22280:	d9801e04 	addi	r6,sp,120
   22284:	b80b883a 	mov	r5,r23
   22288:	8009883a 	mov	r4,r16
   2228c:	002fcc00 	call	2fcc0 <__sprint_r>
   22290:	103ea01e 	bne	r2,zero,21d14 <_gp+0xfffe09dc>
   22294:	8c7ffc04 	addi	r17,r17,-16
   22298:	d8c02017 	ldw	r3,128(sp)
   2229c:	d8801f17 	ldw	r2,124(sp)
   222a0:	da000404 	addi	r8,sp,16
   222a4:	e47fef16 	blt	fp,r17,22264 <_gp+0xfffe0f2c>
   222a8:	9021883a 	mov	r16,r18
   222ac:	a825883a 	mov	r18,r21
   222b0:	b02b883a 	mov	r21,r22
   222b4:	882d883a 	mov	r22,r17
   222b8:	dc402a17 	ldw	r17,168(sp)
   222bc:	d9002c17 	ldw	r4,176(sp)
   222c0:	1d87883a 	add	r3,r3,r22
   222c4:	10800044 	addi	r2,r2,1
   222c8:	41000015 	stw	r4,0(r8)
   222cc:	45800115 	stw	r22,4(r8)
   222d0:	d8c02015 	stw	r3,128(sp)
   222d4:	d8801f15 	stw	r2,124(sp)
   222d8:	010001c4 	movi	r4,7
   222dc:	20821016 	blt	r4,r2,22b20 <___vfprintf_internal_r+0x121c>
   222e0:	42000204 	addi	r8,r8,8
   222e4:	9080400c 	andi	r2,r18,256
   222e8:	10013a1e 	bne	r2,zero,227d4 <___vfprintf_internal_r+0xed0>
   222ec:	d9402b17 	ldw	r5,172(sp)
   222f0:	d8801f17 	ldw	r2,124(sp)
   222f4:	44000015 	stw	r16,0(r8)
   222f8:	1947883a 	add	r3,r3,r5
   222fc:	10800044 	addi	r2,r2,1
   22300:	41400115 	stw	r5,4(r8)
   22304:	d8c02015 	stw	r3,128(sp)
   22308:	d8801f15 	stw	r2,124(sp)
   2230c:	010001c4 	movi	r4,7
   22310:	2081f516 	blt	r4,r2,22ae8 <___vfprintf_internal_r+0x11e4>
   22314:	42000204 	addi	r8,r8,8
   22318:	9480010c 	andi	r18,r18,4
   2231c:	90003226 	beq	r18,zero,223e8 <___vfprintf_internal_r+0xae4>
   22320:	d9403117 	ldw	r5,196(sp)
   22324:	d8802917 	ldw	r2,164(sp)
   22328:	28a1c83a 	sub	r16,r5,r2
   2232c:	04002e0e 	bge	zero,r16,223e8 <___vfprintf_internal_r+0xae4>
   22330:	04400404 	movi	r17,16
   22334:	d8801f17 	ldw	r2,124(sp)
   22338:	8c04c40e 	bge	r17,r16,2364c <___vfprintf_internal_r+0x1d48>
   2233c:	01400134 	movhi	r5,4
   22340:	2960f584 	addi	r5,r5,-31786
   22344:	d9403515 	stw	r5,212(sp)
   22348:	048001c4 	movi	r18,7
   2234c:	dcc02d17 	ldw	r19,180(sp)
   22350:	00000306 	br	22360 <___vfprintf_internal_r+0xa5c>
   22354:	843ffc04 	addi	r16,r16,-16
   22358:	42000204 	addi	r8,r8,8
   2235c:	8c00130e 	bge	r17,r16,223ac <___vfprintf_internal_r+0xaa8>
   22360:	01000134 	movhi	r4,4
   22364:	18c00404 	addi	r3,r3,16
   22368:	10800044 	addi	r2,r2,1
   2236c:	2120f584 	addi	r4,r4,-31786
   22370:	41000015 	stw	r4,0(r8)
   22374:	44400115 	stw	r17,4(r8)
   22378:	d8c02015 	stw	r3,128(sp)
   2237c:	d8801f15 	stw	r2,124(sp)
   22380:	90bff40e 	bge	r18,r2,22354 <_gp+0xfffe101c>
   22384:	d9801e04 	addi	r6,sp,120
   22388:	b80b883a 	mov	r5,r23
   2238c:	9809883a 	mov	r4,r19
   22390:	002fcc00 	call	2fcc0 <__sprint_r>
   22394:	103e5f1e 	bne	r2,zero,21d14 <_gp+0xfffe09dc>
   22398:	843ffc04 	addi	r16,r16,-16
   2239c:	d8c02017 	ldw	r3,128(sp)
   223a0:	d8801f17 	ldw	r2,124(sp)
   223a4:	da000404 	addi	r8,sp,16
   223a8:	8c3fed16 	blt	r17,r16,22360 <_gp+0xfffe1028>
   223ac:	d9403517 	ldw	r5,212(sp)
   223b0:	1c07883a 	add	r3,r3,r16
   223b4:	10800044 	addi	r2,r2,1
   223b8:	41400015 	stw	r5,0(r8)
   223bc:	44000115 	stw	r16,4(r8)
   223c0:	d8c02015 	stw	r3,128(sp)
   223c4:	d8801f15 	stw	r2,124(sp)
   223c8:	010001c4 	movi	r4,7
   223cc:	2080060e 	bge	r4,r2,223e8 <___vfprintf_internal_r+0xae4>
   223d0:	d9002d17 	ldw	r4,180(sp)
   223d4:	d9801e04 	addi	r6,sp,120
   223d8:	b80b883a 	mov	r5,r23
   223dc:	002fcc00 	call	2fcc0 <__sprint_r>
   223e0:	103e4c1e 	bne	r2,zero,21d14 <_gp+0xfffe09dc>
   223e4:	d8c02017 	ldw	r3,128(sp)
   223e8:	d8803117 	ldw	r2,196(sp)
   223ec:	d9002917 	ldw	r4,164(sp)
   223f0:	1100010e 	bge	r2,r4,223f8 <___vfprintf_internal_r+0xaf4>
   223f4:	2005883a 	mov	r2,r4
   223f8:	d9402f17 	ldw	r5,188(sp)
   223fc:	288b883a 	add	r5,r5,r2
   22400:	d9402f15 	stw	r5,188(sp)
   22404:	1801c01e 	bne	r3,zero,22b08 <___vfprintf_internal_r+0x1204>
   22408:	a8800007 	ldb	r2,0(r21)
   2240c:	d8001f15 	stw	zero,124(sp)
   22410:	da000404 	addi	r8,sp,16
   22414:	103d751e 	bne	r2,zero,219ec <_gp+0xfffe06b4>
   22418:	a823883a 	mov	r17,r21
   2241c:	003d8b06 	br	21a4c <_gp+0xfffe0714>
   22420:	8025883a 	mov	r18,r16
   22424:	dc002903 	ldbu	r16,164(sp)
   22428:	e011883a 	mov	r8,fp
   2242c:	84003fcc 	andi	r16,r16,255
   22430:	8005e51e 	bne	r16,zero,23bc8 <___vfprintf_internal_r+0x22c4>
   22434:	94800414 	ori	r18,r18,16
   22438:	9080080c 	andi	r2,r18,32
   2243c:	10022b26 	beq	r2,zero,22cec <___vfprintf_internal_r+0x13e8>
   22440:	d9002e17 	ldw	r4,184(sp)
   22444:	d9402a17 	ldw	r5,168(sp)
   22448:	d8002785 	stb	zero,158(sp)
   2244c:	20c00204 	addi	r3,r4,8
   22450:	24c00017 	ldw	r19,0(r4)
   22454:	25800117 	ldw	r22,4(r4)
   22458:	28042e16 	blt	r5,zero,23514 <___vfprintf_internal_r+0x1c10>
   2245c:	013fdfc4 	movi	r4,-129
   22460:	9d84b03a 	or	r2,r19,r22
   22464:	d8c02e15 	stw	r3,184(sp)
   22468:	9124703a 	and	r18,r18,r4
   2246c:	0039883a 	mov	fp,zero
   22470:	103e801e 	bne	r2,zero,21e74 <_gp+0xfffe0b3c>
   22474:	d9002a17 	ldw	r4,168(sp)
   22478:	2002e01e 	bne	r4,zero,22ffc <___vfprintf_internal_r+0x16f8>
   2247c:	d8002a15 	stw	zero,168(sp)
   22480:	d8002b15 	stw	zero,172(sp)
   22484:	dc001e04 	addi	r16,sp,120
   22488:	003ef506 	br	22060 <_gp+0xfffe0d28>
   2248c:	8025883a 	mov	r18,r16
   22490:	dc002903 	ldbu	r16,164(sp)
   22494:	e011883a 	mov	r8,fp
   22498:	84003fcc 	andi	r16,r16,255
   2249c:	8005ba1e 	bne	r16,zero,23b88 <___vfprintf_internal_r+0x2284>
   224a0:	01000134 	movhi	r4,4
   224a4:	2120e504 	addi	r4,r4,-31852
   224a8:	d9003915 	stw	r4,228(sp)
   224ac:	9080080c 	andi	r2,r18,32
   224b0:	10006126 	beq	r2,zero,22638 <___vfprintf_internal_r+0xd34>
   224b4:	d9402e17 	ldw	r5,184(sp)
   224b8:	2cc00017 	ldw	r19,0(r5)
   224bc:	2d800117 	ldw	r22,4(r5)
   224c0:	29400204 	addi	r5,r5,8
   224c4:	d9402e15 	stw	r5,184(sp)
   224c8:	9080004c 	andi	r2,r18,1
   224cc:	1001ac26 	beq	r2,zero,22b80 <___vfprintf_internal_r+0x127c>
   224d0:	9d84b03a 	or	r2,r19,r22
   224d4:	10038526 	beq	r2,zero,232ec <___vfprintf_internal_r+0x19e8>
   224d8:	d8c02a17 	ldw	r3,168(sp)
   224dc:	00800c04 	movi	r2,48
   224e0:	d8802705 	stb	r2,156(sp)
   224e4:	dc402745 	stb	r17,157(sp)
   224e8:	d8002785 	stb	zero,158(sp)
   224ec:	90800094 	ori	r2,r18,2
   224f0:	18047916 	blt	r3,zero,236d8 <___vfprintf_internal_r+0x1dd4>
   224f4:	00bfdfc4 	movi	r2,-129
   224f8:	90a4703a 	and	r18,r18,r2
   224fc:	94800094 	ori	r18,r18,2
   22500:	0039883a 	mov	fp,zero
   22504:	d9003917 	ldw	r4,228(sp)
   22508:	dc001e04 	addi	r16,sp,120
   2250c:	988003cc 	andi	r2,r19,15
   22510:	b006973a 	slli	r3,r22,28
   22514:	2085883a 	add	r2,r4,r2
   22518:	9826d13a 	srli	r19,r19,4
   2251c:	10800003 	ldbu	r2,0(r2)
   22520:	b02cd13a 	srli	r22,r22,4
   22524:	843fffc4 	addi	r16,r16,-1
   22528:	1ce6b03a 	or	r19,r3,r19
   2252c:	80800005 	stb	r2,0(r16)
   22530:	9d84b03a 	or	r2,r19,r22
   22534:	103ff51e 	bne	r2,zero,2250c <_gp+0xfffe11d4>
   22538:	d8c02817 	ldw	r3,160(sp)
   2253c:	1c07c83a 	sub	r3,r3,r16
   22540:	d8c02b15 	stw	r3,172(sp)
   22544:	003ec606 	br	22060 <_gp+0xfffe0d28>
   22548:	8025883a 	mov	r18,r16
   2254c:	dc002903 	ldbu	r16,164(sp)
   22550:	e011883a 	mov	r8,fp
   22554:	84003fcc 	andi	r16,r16,255
   22558:	803e9626 	beq	r16,zero,21fb4 <_gp+0xfffe0c7c>
   2255c:	d8c02b03 	ldbu	r3,172(sp)
   22560:	d8c02785 	stb	r3,158(sp)
   22564:	003e9306 	br	21fb4 <_gp+0xfffe0c7c>
   22568:	00c00044 	movi	r3,1
   2256c:	d8c02905 	stb	r3,164(sp)
   22570:	00c00ac4 	movi	r3,43
   22574:	d8c02b05 	stb	r3,172(sp)
   22578:	ac400007 	ldb	r17,0(r21)
   2257c:	003d4306 	br	21a8c <_gp+0xfffe0754>
   22580:	84000814 	ori	r16,r16,32
   22584:	ac400007 	ldb	r17,0(r21)
   22588:	003d4006 	br	21a8c <_gp+0xfffe0754>
   2258c:	d8802e17 	ldw	r2,184(sp)
   22590:	8025883a 	mov	r18,r16
   22594:	d8002785 	stb	zero,158(sp)
   22598:	14000017 	ldw	r16,0(r2)
   2259c:	e011883a 	mov	r8,fp
   225a0:	14c00104 	addi	r19,r2,4
   225a4:	80042d26 	beq	r16,zero,2365c <___vfprintf_internal_r+0x1d58>
   225a8:	d8c02a17 	ldw	r3,168(sp)
   225ac:	1803e416 	blt	r3,zero,23540 <___vfprintf_internal_r+0x1c3c>
   225b0:	180d883a 	mov	r6,r3
   225b4:	000b883a 	mov	r5,zero
   225b8:	8009883a 	mov	r4,r16
   225bc:	df003d15 	stw	fp,244(sp)
   225c0:	002915c0 	call	2915c <memchr>
   225c4:	da003d17 	ldw	r8,244(sp)
   225c8:	10046826 	beq	r2,zero,2376c <___vfprintf_internal_r+0x1e68>
   225cc:	1405c83a 	sub	r2,r2,r16
   225d0:	d8802b15 	stw	r2,172(sp)
   225d4:	1003e016 	blt	r2,zero,23558 <___vfprintf_internal_r+0x1c54>
   225d8:	df002783 	ldbu	fp,158(sp)
   225dc:	d8802915 	stw	r2,164(sp)
   225e0:	dcc02e15 	stw	r19,184(sp)
   225e4:	d8002a15 	stw	zero,168(sp)
   225e8:	d8003215 	stw	zero,200(sp)
   225ec:	003ea206 	br	22078 <_gp+0xfffe0d40>
   225f0:	8025883a 	mov	r18,r16
   225f4:	dc002903 	ldbu	r16,164(sp)
   225f8:	e011883a 	mov	r8,fp
   225fc:	84003fcc 	andi	r16,r16,255
   22600:	803f8d26 	beq	r16,zero,22438 <_gp+0xfffe1100>
   22604:	d8c02b03 	ldbu	r3,172(sp)
   22608:	d8c02785 	stb	r3,158(sp)
   2260c:	003f8a06 	br	22438 <_gp+0xfffe1100>
   22610:	8025883a 	mov	r18,r16
   22614:	dc002903 	ldbu	r16,164(sp)
   22618:	e011883a 	mov	r8,fp
   2261c:	84003fcc 	andi	r16,r16,255
   22620:	8005661e 	bne	r16,zero,23bbc <___vfprintf_internal_r+0x22b8>
   22624:	01000134 	movhi	r4,4
   22628:	2120ea04 	addi	r4,r4,-31832
   2262c:	d9003915 	stw	r4,228(sp)
   22630:	9080080c 	andi	r2,r18,32
   22634:	103f9f1e 	bne	r2,zero,224b4 <_gp+0xfffe117c>
   22638:	9080040c 	andi	r2,r18,16
   2263c:	1002eb26 	beq	r2,zero,231ec <___vfprintf_internal_r+0x18e8>
   22640:	d8802e17 	ldw	r2,184(sp)
   22644:	002d883a 	mov	r22,zero
   22648:	14c00017 	ldw	r19,0(r2)
   2264c:	10800104 	addi	r2,r2,4
   22650:	d8802e15 	stw	r2,184(sp)
   22654:	003f9c06 	br	224c8 <_gp+0xfffe1190>
   22658:	d8802b07 	ldb	r2,172(sp)
   2265c:	1002e11e 	bne	r2,zero,231e4 <___vfprintf_internal_r+0x18e0>
   22660:	00c00044 	movi	r3,1
   22664:	d8c02905 	stb	r3,164(sp)
   22668:	00c00804 	movi	r3,32
   2266c:	d8c02b05 	stb	r3,172(sp)
   22670:	ac400007 	ldb	r17,0(r21)
   22674:	003d0506 	br	21a8c <_gp+0xfffe0754>
   22678:	84000054 	ori	r16,r16,1
   2267c:	ac400007 	ldb	r17,0(r21)
   22680:	003d0206 	br	21a8c <_gp+0xfffe0754>
   22684:	8025883a 	mov	r18,r16
   22688:	dc002903 	ldbu	r16,164(sp)
   2268c:	e011883a 	mov	r8,fp
   22690:	84003fcc 	andi	r16,r16,255
   22694:	803de726 	beq	r16,zero,21e34 <_gp+0xfffe0afc>
   22698:	d8c02b03 	ldbu	r3,172(sp)
   2269c:	d8c02785 	stb	r3,158(sp)
   226a0:	003de406 	br	21e34 <_gp+0xfffe0afc>
   226a4:	84001014 	ori	r16,r16,64
   226a8:	ac400007 	ldb	r17,0(r21)
   226ac:	003cf706 	br	21a8c <_gp+0xfffe0754>
   226b0:	ac400007 	ldb	r17,0(r21)
   226b4:	00801b04 	movi	r2,108
   226b8:	88838f26 	beq	r17,r2,234f8 <___vfprintf_internal_r+0x1bf4>
   226bc:	84000414 	ori	r16,r16,16
   226c0:	003cf206 	br	21a8c <_gp+0xfffe0754>
   226c4:	8025883a 	mov	r18,r16
   226c8:	dc002903 	ldbu	r16,164(sp)
   226cc:	e011883a 	mov	r8,fp
   226d0:	84003fcc 	andi	r16,r16,255
   226d4:	80053f1e 	bne	r16,zero,23bd4 <___vfprintf_internal_r+0x22d0>
   226d8:	9080080c 	andi	r2,r18,32
   226dc:	1002d226 	beq	r2,zero,23228 <___vfprintf_internal_r+0x1924>
   226e0:	d9002e17 	ldw	r4,184(sp)
   226e4:	d9402f17 	ldw	r5,188(sp)
   226e8:	20800017 	ldw	r2,0(r4)
   226ec:	2807d7fa 	srai	r3,r5,31
   226f0:	21000104 	addi	r4,r4,4
   226f4:	d9002e15 	stw	r4,184(sp)
   226f8:	11400015 	stw	r5,0(r2)
   226fc:	10c00115 	stw	r3,4(r2)
   22700:	003cb806 	br	219e4 <_gp+0xfffe06ac>
   22704:	d8c02e17 	ldw	r3,184(sp)
   22708:	d9002e17 	ldw	r4,184(sp)
   2270c:	8025883a 	mov	r18,r16
   22710:	18800017 	ldw	r2,0(r3)
   22714:	21000104 	addi	r4,r4,4
   22718:	00c00044 	movi	r3,1
   2271c:	e011883a 	mov	r8,fp
   22720:	d8c02915 	stw	r3,164(sp)
   22724:	d8002785 	stb	zero,158(sp)
   22728:	d8801405 	stb	r2,80(sp)
   2272c:	d9002e15 	stw	r4,184(sp)
   22730:	d8c02b15 	stw	r3,172(sp)
   22734:	d8002a15 	stw	zero,168(sp)
   22738:	d8003215 	stw	zero,200(sp)
   2273c:	dc001404 	addi	r16,sp,80
   22740:	0039883a 	mov	fp,zero
   22744:	003e5306 	br	22094 <_gp+0xfffe0d5c>
   22748:	01000134 	movhi	r4,4
   2274c:	2120ea04 	addi	r4,r4,-31832
   22750:	0039883a 	mov	fp,zero
   22754:	d9003915 	stw	r4,228(sp)
   22758:	04401e04 	movi	r17,120
   2275c:	003f6906 	br	22504 <_gp+0xfffe11cc>
   22760:	8025883a 	mov	r18,r16
   22764:	dc002903 	ldbu	r16,164(sp)
   22768:	e011883a 	mov	r8,fp
   2276c:	84003fcc 	andi	r16,r16,255
   22770:	8005081e 	bne	r16,zero,23b94 <___vfprintf_internal_r+0x2290>
   22774:	883d6126 	beq	r17,zero,21cfc <_gp+0xfffe09c4>
   22778:	00c00044 	movi	r3,1
   2277c:	d8c02915 	stw	r3,164(sp)
   22780:	dc401405 	stb	r17,80(sp)
   22784:	d8002785 	stb	zero,158(sp)
   22788:	003fe906 	br	22730 <_gp+0xfffe13f8>
   2278c:	01400134 	movhi	r5,4
   22790:	2960ea04 	addi	r5,r5,-31832
   22794:	d9403915 	stw	r5,228(sp)
   22798:	d8c02e15 	stw	r3,184(sp)
   2279c:	1025883a 	mov	r18,r2
   227a0:	04401e04 	movi	r17,120
   227a4:	9d84b03a 	or	r2,r19,r22
   227a8:	1000fc1e 	bne	r2,zero,22b9c <___vfprintf_internal_r+0x1298>
   227ac:	0039883a 	mov	fp,zero
   227b0:	00800084 	movi	r2,2
   227b4:	10803fcc 	andi	r2,r2,255
   227b8:	00c00044 	movi	r3,1
   227bc:	10c20f26 	beq	r2,r3,22ffc <___vfprintf_internal_r+0x16f8>
   227c0:	00c00084 	movi	r3,2
   227c4:	10fd3326 	beq	r2,r3,21c94 <_gp+0xfffe095c>
   227c8:	003e0b06 	br	21ff8 <_gp+0xfffe0cc0>
   227cc:	d8c02017 	ldw	r3,128(sp)
   227d0:	003e7106 	br	22198 <_gp+0xfffe0e60>
   227d4:	00801944 	movi	r2,101
   227d8:	14407e0e 	bge	r2,r17,229d4 <___vfprintf_internal_r+0x10d0>
   227dc:	d9003617 	ldw	r4,216(sp)
   227e0:	d9403817 	ldw	r5,224(sp)
   227e4:	000d883a 	mov	r6,zero
   227e8:	000f883a 	mov	r7,zero
   227ec:	d8c03c15 	stw	r3,240(sp)
   227f0:	da003d15 	stw	r8,244(sp)
   227f4:	00361900 	call	36190 <__eqdf2>
   227f8:	d8c03c17 	ldw	r3,240(sp)
   227fc:	da003d17 	ldw	r8,244(sp)
   22800:	1000f71e 	bne	r2,zero,22be0 <___vfprintf_internal_r+0x12dc>
   22804:	d8801f17 	ldw	r2,124(sp)
   22808:	01000134 	movhi	r4,4
   2280c:	2120f104 	addi	r4,r4,-31804
   22810:	18c00044 	addi	r3,r3,1
   22814:	10800044 	addi	r2,r2,1
   22818:	41000015 	stw	r4,0(r8)
   2281c:	01000044 	movi	r4,1
   22820:	41000115 	stw	r4,4(r8)
   22824:	d8c02015 	stw	r3,128(sp)
   22828:	d8801f15 	stw	r2,124(sp)
   2282c:	010001c4 	movi	r4,7
   22830:	2082b816 	blt	r4,r2,23314 <___vfprintf_internal_r+0x1a10>
   22834:	42000204 	addi	r8,r8,8
   22838:	d8802617 	ldw	r2,152(sp)
   2283c:	d9403317 	ldw	r5,204(sp)
   22840:	11400216 	blt	r2,r5,2284c <___vfprintf_internal_r+0xf48>
   22844:	9080004c 	andi	r2,r18,1
   22848:	103eb326 	beq	r2,zero,22318 <_gp+0xfffe0fe0>
   2284c:	d8803717 	ldw	r2,220(sp)
   22850:	d9003417 	ldw	r4,208(sp)
   22854:	d9403717 	ldw	r5,220(sp)
   22858:	1887883a 	add	r3,r3,r2
   2285c:	d8801f17 	ldw	r2,124(sp)
   22860:	41000015 	stw	r4,0(r8)
   22864:	41400115 	stw	r5,4(r8)
   22868:	10800044 	addi	r2,r2,1
   2286c:	d8c02015 	stw	r3,128(sp)
   22870:	d8801f15 	stw	r2,124(sp)
   22874:	010001c4 	movi	r4,7
   22878:	20832916 	blt	r4,r2,23520 <___vfprintf_internal_r+0x1c1c>
   2287c:	42000204 	addi	r8,r8,8
   22880:	d8803317 	ldw	r2,204(sp)
   22884:	143fffc4 	addi	r16,r2,-1
   22888:	043ea30e 	bge	zero,r16,22318 <_gp+0xfffe0fe0>
   2288c:	04400404 	movi	r17,16
   22890:	d8801f17 	ldw	r2,124(sp)
   22894:	8c00880e 	bge	r17,r16,22ab8 <___vfprintf_internal_r+0x11b4>
   22898:	01400134 	movhi	r5,4
   2289c:	2960f184 	addi	r5,r5,-31802
   228a0:	d9402c15 	stw	r5,176(sp)
   228a4:	058001c4 	movi	r22,7
   228a8:	dcc02d17 	ldw	r19,180(sp)
   228ac:	00000306 	br	228bc <___vfprintf_internal_r+0xfb8>
   228b0:	42000204 	addi	r8,r8,8
   228b4:	843ffc04 	addi	r16,r16,-16
   228b8:	8c00820e 	bge	r17,r16,22ac4 <___vfprintf_internal_r+0x11c0>
   228bc:	18c00404 	addi	r3,r3,16
   228c0:	10800044 	addi	r2,r2,1
   228c4:	45000015 	stw	r20,0(r8)
   228c8:	44400115 	stw	r17,4(r8)
   228cc:	d8c02015 	stw	r3,128(sp)
   228d0:	d8801f15 	stw	r2,124(sp)
   228d4:	b0bff60e 	bge	r22,r2,228b0 <_gp+0xfffe1578>
   228d8:	d9801e04 	addi	r6,sp,120
   228dc:	b80b883a 	mov	r5,r23
   228e0:	9809883a 	mov	r4,r19
   228e4:	002fcc00 	call	2fcc0 <__sprint_r>
   228e8:	103d0a1e 	bne	r2,zero,21d14 <_gp+0xfffe09dc>
   228ec:	d8c02017 	ldw	r3,128(sp)
   228f0:	d8801f17 	ldw	r2,124(sp)
   228f4:	da000404 	addi	r8,sp,16
   228f8:	003fee06 	br	228b4 <_gp+0xfffe157c>
   228fc:	d9403117 	ldw	r5,196(sp)
   22900:	d8802917 	ldw	r2,164(sp)
   22904:	28adc83a 	sub	r22,r5,r2
   22908:	05be410e 	bge	zero,r22,22210 <_gp+0xfffe0ed8>
   2290c:	07000404 	movi	fp,16
   22910:	d8801f17 	ldw	r2,124(sp)
   22914:	e5838f0e 	bge	fp,r22,23754 <___vfprintf_internal_r+0x1e50>
   22918:	01400134 	movhi	r5,4
   2291c:	2960f184 	addi	r5,r5,-31802
   22920:	dc403015 	stw	r17,192(sp)
   22924:	d9402c15 	stw	r5,176(sp)
   22928:	b023883a 	mov	r17,r22
   2292c:	04c001c4 	movi	r19,7
   22930:	a82d883a 	mov	r22,r21
   22934:	902b883a 	mov	r21,r18
   22938:	8025883a 	mov	r18,r16
   2293c:	dc002d17 	ldw	r16,180(sp)
   22940:	00000306 	br	22950 <___vfprintf_internal_r+0x104c>
   22944:	8c7ffc04 	addi	r17,r17,-16
   22948:	42000204 	addi	r8,r8,8
   2294c:	e440110e 	bge	fp,r17,22994 <___vfprintf_internal_r+0x1090>
   22950:	18c00404 	addi	r3,r3,16
   22954:	10800044 	addi	r2,r2,1
   22958:	45000015 	stw	r20,0(r8)
   2295c:	47000115 	stw	fp,4(r8)
   22960:	d8c02015 	stw	r3,128(sp)
   22964:	d8801f15 	stw	r2,124(sp)
   22968:	98bff60e 	bge	r19,r2,22944 <_gp+0xfffe160c>
   2296c:	d9801e04 	addi	r6,sp,120
   22970:	b80b883a 	mov	r5,r23
   22974:	8009883a 	mov	r4,r16
   22978:	002fcc00 	call	2fcc0 <__sprint_r>
   2297c:	103ce51e 	bne	r2,zero,21d14 <_gp+0xfffe09dc>
   22980:	8c7ffc04 	addi	r17,r17,-16
   22984:	d8c02017 	ldw	r3,128(sp)
   22988:	d8801f17 	ldw	r2,124(sp)
   2298c:	da000404 	addi	r8,sp,16
   22990:	e47fef16 	blt	fp,r17,22950 <_gp+0xfffe1618>
   22994:	9021883a 	mov	r16,r18
   22998:	a825883a 	mov	r18,r21
   2299c:	b02b883a 	mov	r21,r22
   229a0:	882d883a 	mov	r22,r17
   229a4:	dc403017 	ldw	r17,192(sp)
   229a8:	d9002c17 	ldw	r4,176(sp)
   229ac:	1d87883a 	add	r3,r3,r22
   229b0:	10800044 	addi	r2,r2,1
   229b4:	41000015 	stw	r4,0(r8)
   229b8:	45800115 	stw	r22,4(r8)
   229bc:	d8c02015 	stw	r3,128(sp)
   229c0:	d8801f15 	stw	r2,124(sp)
   229c4:	010001c4 	movi	r4,7
   229c8:	20818e16 	blt	r4,r2,23004 <___vfprintf_internal_r+0x1700>
   229cc:	42000204 	addi	r8,r8,8
   229d0:	003e0f06 	br	22210 <_gp+0xfffe0ed8>
   229d4:	d9403317 	ldw	r5,204(sp)
   229d8:	00800044 	movi	r2,1
   229dc:	18c00044 	addi	r3,r3,1
   229e0:	1141530e 	bge	r2,r5,22f30 <___vfprintf_internal_r+0x162c>
   229e4:	dc401f17 	ldw	r17,124(sp)
   229e8:	00800044 	movi	r2,1
   229ec:	40800115 	stw	r2,4(r8)
   229f0:	8c400044 	addi	r17,r17,1
   229f4:	44000015 	stw	r16,0(r8)
   229f8:	d8c02015 	stw	r3,128(sp)
   229fc:	dc401f15 	stw	r17,124(sp)
   22a00:	008001c4 	movi	r2,7
   22a04:	14416b16 	blt	r2,r17,22fb4 <___vfprintf_internal_r+0x16b0>
   22a08:	42000204 	addi	r8,r8,8
   22a0c:	d8803717 	ldw	r2,220(sp)
   22a10:	d9003417 	ldw	r4,208(sp)
   22a14:	8c400044 	addi	r17,r17,1
   22a18:	10c7883a 	add	r3,r2,r3
   22a1c:	40800115 	stw	r2,4(r8)
   22a20:	41000015 	stw	r4,0(r8)
   22a24:	d8c02015 	stw	r3,128(sp)
   22a28:	dc401f15 	stw	r17,124(sp)
   22a2c:	008001c4 	movi	r2,7
   22a30:	14416916 	blt	r2,r17,22fd8 <___vfprintf_internal_r+0x16d4>
   22a34:	45800204 	addi	r22,r8,8
   22a38:	d9003617 	ldw	r4,216(sp)
   22a3c:	d9403817 	ldw	r5,224(sp)
   22a40:	000d883a 	mov	r6,zero
   22a44:	000f883a 	mov	r7,zero
   22a48:	d8c03c15 	stw	r3,240(sp)
   22a4c:	00361900 	call	36190 <__eqdf2>
   22a50:	d8c03c17 	ldw	r3,240(sp)
   22a54:	1000bc26 	beq	r2,zero,22d48 <___vfprintf_internal_r+0x1444>
   22a58:	d9403317 	ldw	r5,204(sp)
   22a5c:	84000044 	addi	r16,r16,1
   22a60:	8c400044 	addi	r17,r17,1
   22a64:	28bfffc4 	addi	r2,r5,-1
   22a68:	1887883a 	add	r3,r3,r2
   22a6c:	b0800115 	stw	r2,4(r22)
   22a70:	b4000015 	stw	r16,0(r22)
   22a74:	d8c02015 	stw	r3,128(sp)
   22a78:	dc401f15 	stw	r17,124(sp)
   22a7c:	008001c4 	movi	r2,7
   22a80:	14414316 	blt	r2,r17,22f90 <___vfprintf_internal_r+0x168c>
   22a84:	b5800204 	addi	r22,r22,8
   22a88:	d9003a17 	ldw	r4,232(sp)
   22a8c:	df0022c4 	addi	fp,sp,139
   22a90:	8c400044 	addi	r17,r17,1
   22a94:	20c7883a 	add	r3,r4,r3
   22a98:	b7000015 	stw	fp,0(r22)
   22a9c:	b1000115 	stw	r4,4(r22)
   22aa0:	d8c02015 	stw	r3,128(sp)
   22aa4:	dc401f15 	stw	r17,124(sp)
   22aa8:	008001c4 	movi	r2,7
   22aac:	14400e16 	blt	r2,r17,22ae8 <___vfprintf_internal_r+0x11e4>
   22ab0:	b2000204 	addi	r8,r22,8
   22ab4:	003e1806 	br	22318 <_gp+0xfffe0fe0>
   22ab8:	01000134 	movhi	r4,4
   22abc:	2120f184 	addi	r4,r4,-31802
   22ac0:	d9002c15 	stw	r4,176(sp)
   22ac4:	d9002c17 	ldw	r4,176(sp)
   22ac8:	1c07883a 	add	r3,r3,r16
   22acc:	44000115 	stw	r16,4(r8)
   22ad0:	41000015 	stw	r4,0(r8)
   22ad4:	10800044 	addi	r2,r2,1
   22ad8:	d8c02015 	stw	r3,128(sp)
   22adc:	d8801f15 	stw	r2,124(sp)
   22ae0:	010001c4 	movi	r4,7
   22ae4:	20be0b0e 	bge	r4,r2,22314 <_gp+0xfffe0fdc>
   22ae8:	d9002d17 	ldw	r4,180(sp)
   22aec:	d9801e04 	addi	r6,sp,120
   22af0:	b80b883a 	mov	r5,r23
   22af4:	002fcc00 	call	2fcc0 <__sprint_r>
   22af8:	103c861e 	bne	r2,zero,21d14 <_gp+0xfffe09dc>
   22afc:	d8c02017 	ldw	r3,128(sp)
   22b00:	da000404 	addi	r8,sp,16
   22b04:	003e0406 	br	22318 <_gp+0xfffe0fe0>
   22b08:	d9002d17 	ldw	r4,180(sp)
   22b0c:	d9801e04 	addi	r6,sp,120
   22b10:	b80b883a 	mov	r5,r23
   22b14:	002fcc00 	call	2fcc0 <__sprint_r>
   22b18:	103e3b26 	beq	r2,zero,22408 <_gp+0xfffe10d0>
   22b1c:	003c7d06 	br	21d14 <_gp+0xfffe09dc>
   22b20:	d9002d17 	ldw	r4,180(sp)
   22b24:	d9801e04 	addi	r6,sp,120
   22b28:	b80b883a 	mov	r5,r23
   22b2c:	002fcc00 	call	2fcc0 <__sprint_r>
   22b30:	103c781e 	bne	r2,zero,21d14 <_gp+0xfffe09dc>
   22b34:	d8c02017 	ldw	r3,128(sp)
   22b38:	da000404 	addi	r8,sp,16
   22b3c:	003de906 	br	222e4 <_gp+0xfffe0fac>
   22b40:	d9002d17 	ldw	r4,180(sp)
   22b44:	d9801e04 	addi	r6,sp,120
   22b48:	b80b883a 	mov	r5,r23
   22b4c:	002fcc00 	call	2fcc0 <__sprint_r>
   22b50:	103c701e 	bne	r2,zero,21d14 <_gp+0xfffe09dc>
   22b54:	d8c02017 	ldw	r3,128(sp)
   22b58:	da000404 	addi	r8,sp,16
   22b5c:	003d9b06 	br	221cc <_gp+0xfffe0e94>
   22b60:	d9002d17 	ldw	r4,180(sp)
   22b64:	d9801e04 	addi	r6,sp,120
   22b68:	b80b883a 	mov	r5,r23
   22b6c:	002fcc00 	call	2fcc0 <__sprint_r>
   22b70:	103c681e 	bne	r2,zero,21d14 <_gp+0xfffe09dc>
   22b74:	d8c02017 	ldw	r3,128(sp)
   22b78:	da000404 	addi	r8,sp,16
   22b7c:	003da106 	br	22204 <_gp+0xfffe0ecc>
   22b80:	d9402a17 	ldw	r5,168(sp)
   22b84:	d8002785 	stb	zero,158(sp)
   22b88:	283f0616 	blt	r5,zero,227a4 <_gp+0xfffe146c>
   22b8c:	00ffdfc4 	movi	r3,-129
   22b90:	9d84b03a 	or	r2,r19,r22
   22b94:	90e4703a 	and	r18,r18,r3
   22b98:	103c3b26 	beq	r2,zero,21c88 <_gp+0xfffe0950>
   22b9c:	0039883a 	mov	fp,zero
   22ba0:	003e5806 	br	22504 <_gp+0xfffe11cc>
   22ba4:	9080040c 	andi	r2,r18,16
   22ba8:	1001b326 	beq	r2,zero,23278 <___vfprintf_internal_r+0x1974>
   22bac:	d8c02e17 	ldw	r3,184(sp)
   22bb0:	d9002a17 	ldw	r4,168(sp)
   22bb4:	d8002785 	stb	zero,158(sp)
   22bb8:	18800104 	addi	r2,r3,4
   22bbc:	1cc00017 	ldw	r19,0(r3)
   22bc0:	002d883a 	mov	r22,zero
   22bc4:	2001b516 	blt	r4,zero,2329c <___vfprintf_internal_r+0x1998>
   22bc8:	00ffdfc4 	movi	r3,-129
   22bcc:	d8802e15 	stw	r2,184(sp)
   22bd0:	90e4703a 	and	r18,r18,r3
   22bd4:	983d0526 	beq	r19,zero,21fec <_gp+0xfffe0cb4>
   22bd8:	0039883a 	mov	fp,zero
   22bdc:	003d0806 	br	22000 <_gp+0xfffe0cc8>
   22be0:	dc402617 	ldw	r17,152(sp)
   22be4:	0441d30e 	bge	zero,r17,23334 <___vfprintf_internal_r+0x1a30>
   22be8:	dc403217 	ldw	r17,200(sp)
   22bec:	d8803317 	ldw	r2,204(sp)
   22bf0:	1440010e 	bge	r2,r17,22bf8 <___vfprintf_internal_r+0x12f4>
   22bf4:	1023883a 	mov	r17,r2
   22bf8:	04400a0e 	bge	zero,r17,22c24 <___vfprintf_internal_r+0x1320>
   22bfc:	d8801f17 	ldw	r2,124(sp)
   22c00:	1c47883a 	add	r3,r3,r17
   22c04:	44000015 	stw	r16,0(r8)
   22c08:	10800044 	addi	r2,r2,1
   22c0c:	44400115 	stw	r17,4(r8)
   22c10:	d8c02015 	stw	r3,128(sp)
   22c14:	d8801f15 	stw	r2,124(sp)
   22c18:	010001c4 	movi	r4,7
   22c1c:	20826516 	blt	r4,r2,235b4 <___vfprintf_internal_r+0x1cb0>
   22c20:	42000204 	addi	r8,r8,8
   22c24:	88026116 	blt	r17,zero,235ac <___vfprintf_internal_r+0x1ca8>
   22c28:	d9003217 	ldw	r4,200(sp)
   22c2c:	2463c83a 	sub	r17,r4,r17
   22c30:	04407b0e 	bge	zero,r17,22e20 <___vfprintf_internal_r+0x151c>
   22c34:	05800404 	movi	r22,16
   22c38:	d8801f17 	ldw	r2,124(sp)
   22c3c:	b4419d0e 	bge	r22,r17,232b4 <___vfprintf_internal_r+0x19b0>
   22c40:	01000134 	movhi	r4,4
   22c44:	2120f184 	addi	r4,r4,-31802
   22c48:	d9002c15 	stw	r4,176(sp)
   22c4c:	070001c4 	movi	fp,7
   22c50:	dcc02d17 	ldw	r19,180(sp)
   22c54:	00000306 	br	22c64 <___vfprintf_internal_r+0x1360>
   22c58:	42000204 	addi	r8,r8,8
   22c5c:	8c7ffc04 	addi	r17,r17,-16
   22c60:	b441970e 	bge	r22,r17,232c0 <___vfprintf_internal_r+0x19bc>
   22c64:	18c00404 	addi	r3,r3,16
   22c68:	10800044 	addi	r2,r2,1
   22c6c:	45000015 	stw	r20,0(r8)
   22c70:	45800115 	stw	r22,4(r8)
   22c74:	d8c02015 	stw	r3,128(sp)
   22c78:	d8801f15 	stw	r2,124(sp)
   22c7c:	e0bff60e 	bge	fp,r2,22c58 <_gp+0xfffe1920>
   22c80:	d9801e04 	addi	r6,sp,120
   22c84:	b80b883a 	mov	r5,r23
   22c88:	9809883a 	mov	r4,r19
   22c8c:	002fcc00 	call	2fcc0 <__sprint_r>
   22c90:	103c201e 	bne	r2,zero,21d14 <_gp+0xfffe09dc>
   22c94:	d8c02017 	ldw	r3,128(sp)
   22c98:	d8801f17 	ldw	r2,124(sp)
   22c9c:	da000404 	addi	r8,sp,16
   22ca0:	003fee06 	br	22c5c <_gp+0xfffe1924>
   22ca4:	d9002d17 	ldw	r4,180(sp)
   22ca8:	d9801e04 	addi	r6,sp,120
   22cac:	b80b883a 	mov	r5,r23
   22cb0:	002fcc00 	call	2fcc0 <__sprint_r>
   22cb4:	103c171e 	bne	r2,zero,21d14 <_gp+0xfffe09dc>
   22cb8:	d8c02017 	ldw	r3,128(sp)
   22cbc:	df002787 	ldb	fp,158(sp)
   22cc0:	da000404 	addi	r8,sp,16
   22cc4:	003d3406 	br	22198 <_gp+0xfffe0e60>
   22cc8:	9080040c 	andi	r2,r18,16
   22ccc:	10016126 	beq	r2,zero,23254 <___vfprintf_internal_r+0x1950>
   22cd0:	d9402e17 	ldw	r5,184(sp)
   22cd4:	2cc00017 	ldw	r19,0(r5)
   22cd8:	29400104 	addi	r5,r5,4
   22cdc:	d9402e15 	stw	r5,184(sp)
   22ce0:	982dd7fa 	srai	r22,r19,31
   22ce4:	b005883a 	mov	r2,r22
   22ce8:	003c5a06 	br	21e54 <_gp+0xfffe0b1c>
   22cec:	9080040c 	andi	r2,r18,16
   22cf0:	10003526 	beq	r2,zero,22dc8 <___vfprintf_internal_r+0x14c4>
   22cf4:	d8c02e17 	ldw	r3,184(sp)
   22cf8:	d9002a17 	ldw	r4,168(sp)
   22cfc:	d8002785 	stb	zero,158(sp)
   22d00:	18800104 	addi	r2,r3,4
   22d04:	1cc00017 	ldw	r19,0(r3)
   22d08:	002d883a 	mov	r22,zero
   22d0c:	20003716 	blt	r4,zero,22dec <___vfprintf_internal_r+0x14e8>
   22d10:	00ffdfc4 	movi	r3,-129
   22d14:	d8802e15 	stw	r2,184(sp)
   22d18:	90e4703a 	and	r18,r18,r3
   22d1c:	0039883a 	mov	fp,zero
   22d20:	983dd426 	beq	r19,zero,22474 <_gp+0xfffe113c>
   22d24:	00800244 	movi	r2,9
   22d28:	14fc5336 	bltu	r2,r19,21e78 <_gp+0xfffe0b40>
   22d2c:	d8c02817 	ldw	r3,160(sp)
   22d30:	dc001dc4 	addi	r16,sp,119
   22d34:	9cc00c04 	addi	r19,r19,48
   22d38:	1c07c83a 	sub	r3,r3,r16
   22d3c:	dcc01dc5 	stb	r19,119(sp)
   22d40:	d8c02b15 	stw	r3,172(sp)
   22d44:	003cc606 	br	22060 <_gp+0xfffe0d28>
   22d48:	d8803317 	ldw	r2,204(sp)
   22d4c:	143fffc4 	addi	r16,r2,-1
   22d50:	043f4d0e 	bge	zero,r16,22a88 <_gp+0xfffe1750>
   22d54:	07000404 	movi	fp,16
   22d58:	e400810e 	bge	fp,r16,22f60 <___vfprintf_internal_r+0x165c>
   22d5c:	01400134 	movhi	r5,4
   22d60:	2960f184 	addi	r5,r5,-31802
   22d64:	d9402c15 	stw	r5,176(sp)
   22d68:	01c001c4 	movi	r7,7
   22d6c:	dcc02d17 	ldw	r19,180(sp)
   22d70:	00000306 	br	22d80 <___vfprintf_internal_r+0x147c>
   22d74:	b5800204 	addi	r22,r22,8
   22d78:	843ffc04 	addi	r16,r16,-16
   22d7c:	e4007b0e 	bge	fp,r16,22f6c <___vfprintf_internal_r+0x1668>
   22d80:	18c00404 	addi	r3,r3,16
   22d84:	8c400044 	addi	r17,r17,1
   22d88:	b5000015 	stw	r20,0(r22)
   22d8c:	b7000115 	stw	fp,4(r22)
   22d90:	d8c02015 	stw	r3,128(sp)
   22d94:	dc401f15 	stw	r17,124(sp)
   22d98:	3c7ff60e 	bge	r7,r17,22d74 <_gp+0xfffe1a3c>
   22d9c:	d9801e04 	addi	r6,sp,120
   22da0:	b80b883a 	mov	r5,r23
   22da4:	9809883a 	mov	r4,r19
   22da8:	d9c03c15 	stw	r7,240(sp)
   22dac:	002fcc00 	call	2fcc0 <__sprint_r>
   22db0:	d9c03c17 	ldw	r7,240(sp)
   22db4:	103bd71e 	bne	r2,zero,21d14 <_gp+0xfffe09dc>
   22db8:	d8c02017 	ldw	r3,128(sp)
   22dbc:	dc401f17 	ldw	r17,124(sp)
   22dc0:	dd800404 	addi	r22,sp,16
   22dc4:	003fec06 	br	22d78 <_gp+0xfffe1a40>
   22dc8:	9080100c 	andi	r2,r18,64
   22dcc:	d8002785 	stb	zero,158(sp)
   22dd0:	10010e26 	beq	r2,zero,2320c <___vfprintf_internal_r+0x1908>
   22dd4:	d9402e17 	ldw	r5,184(sp)
   22dd8:	d8c02a17 	ldw	r3,168(sp)
   22ddc:	002d883a 	mov	r22,zero
   22de0:	28800104 	addi	r2,r5,4
   22de4:	2cc0000b 	ldhu	r19,0(r5)
   22de8:	183fc90e 	bge	r3,zero,22d10 <_gp+0xfffe19d8>
   22dec:	d8802e15 	stw	r2,184(sp)
   22df0:	0039883a 	mov	fp,zero
   22df4:	9d84b03a 	or	r2,r19,r22
   22df8:	103c1e1e 	bne	r2,zero,21e74 <_gp+0xfffe0b3c>
   22dfc:	00800044 	movi	r2,1
   22e00:	003e6c06 	br	227b4 <_gp+0xfffe147c>
   22e04:	d9002d17 	ldw	r4,180(sp)
   22e08:	d9801e04 	addi	r6,sp,120
   22e0c:	b80b883a 	mov	r5,r23
   22e10:	002fcc00 	call	2fcc0 <__sprint_r>
   22e14:	103bbf1e 	bne	r2,zero,21d14 <_gp+0xfffe09dc>
   22e18:	d8c02017 	ldw	r3,128(sp)
   22e1c:	da000404 	addi	r8,sp,16
   22e20:	d9003217 	ldw	r4,200(sp)
   22e24:	d8802617 	ldw	r2,152(sp)
   22e28:	d9403317 	ldw	r5,204(sp)
   22e2c:	8123883a 	add	r17,r16,r4
   22e30:	11400216 	blt	r2,r5,22e3c <___vfprintf_internal_r+0x1538>
   22e34:	9100004c 	andi	r4,r18,1
   22e38:	20000d26 	beq	r4,zero,22e70 <___vfprintf_internal_r+0x156c>
   22e3c:	d9003717 	ldw	r4,220(sp)
   22e40:	d9403417 	ldw	r5,208(sp)
   22e44:	1907883a 	add	r3,r3,r4
   22e48:	d9001f17 	ldw	r4,124(sp)
   22e4c:	41400015 	stw	r5,0(r8)
   22e50:	d9403717 	ldw	r5,220(sp)
   22e54:	21000044 	addi	r4,r4,1
   22e58:	d8c02015 	stw	r3,128(sp)
   22e5c:	41400115 	stw	r5,4(r8)
   22e60:	d9001f15 	stw	r4,124(sp)
   22e64:	014001c4 	movi	r5,7
   22e68:	2901e816 	blt	r5,r4,2360c <___vfprintf_internal_r+0x1d08>
   22e6c:	42000204 	addi	r8,r8,8
   22e70:	d9003317 	ldw	r4,204(sp)
   22e74:	8121883a 	add	r16,r16,r4
   22e78:	2085c83a 	sub	r2,r4,r2
   22e7c:	8461c83a 	sub	r16,r16,r17
   22e80:	1400010e 	bge	r2,r16,22e88 <___vfprintf_internal_r+0x1584>
   22e84:	1021883a 	mov	r16,r2
   22e88:	04000a0e 	bge	zero,r16,22eb4 <___vfprintf_internal_r+0x15b0>
   22e8c:	d9001f17 	ldw	r4,124(sp)
   22e90:	1c07883a 	add	r3,r3,r16
   22e94:	44400015 	stw	r17,0(r8)
   22e98:	21000044 	addi	r4,r4,1
   22e9c:	44000115 	stw	r16,4(r8)
   22ea0:	d8c02015 	stw	r3,128(sp)
   22ea4:	d9001f15 	stw	r4,124(sp)
   22ea8:	014001c4 	movi	r5,7
   22eac:	2901fb16 	blt	r5,r4,2369c <___vfprintf_internal_r+0x1d98>
   22eb0:	42000204 	addi	r8,r8,8
   22eb4:	8001f716 	blt	r16,zero,23694 <___vfprintf_internal_r+0x1d90>
   22eb8:	1421c83a 	sub	r16,r2,r16
   22ebc:	043d160e 	bge	zero,r16,22318 <_gp+0xfffe0fe0>
   22ec0:	04400404 	movi	r17,16
   22ec4:	d8801f17 	ldw	r2,124(sp)
   22ec8:	8c3efb0e 	bge	r17,r16,22ab8 <_gp+0xfffe1780>
   22ecc:	01400134 	movhi	r5,4
   22ed0:	2960f184 	addi	r5,r5,-31802
   22ed4:	d9402c15 	stw	r5,176(sp)
   22ed8:	058001c4 	movi	r22,7
   22edc:	dcc02d17 	ldw	r19,180(sp)
   22ee0:	00000306 	br	22ef0 <___vfprintf_internal_r+0x15ec>
   22ee4:	42000204 	addi	r8,r8,8
   22ee8:	843ffc04 	addi	r16,r16,-16
   22eec:	8c3ef50e 	bge	r17,r16,22ac4 <_gp+0xfffe178c>
   22ef0:	18c00404 	addi	r3,r3,16
   22ef4:	10800044 	addi	r2,r2,1
   22ef8:	45000015 	stw	r20,0(r8)
   22efc:	44400115 	stw	r17,4(r8)
   22f00:	d8c02015 	stw	r3,128(sp)
   22f04:	d8801f15 	stw	r2,124(sp)
   22f08:	b0bff60e 	bge	r22,r2,22ee4 <_gp+0xfffe1bac>
   22f0c:	d9801e04 	addi	r6,sp,120
   22f10:	b80b883a 	mov	r5,r23
   22f14:	9809883a 	mov	r4,r19
   22f18:	002fcc00 	call	2fcc0 <__sprint_r>
   22f1c:	103b7d1e 	bne	r2,zero,21d14 <_gp+0xfffe09dc>
   22f20:	d8c02017 	ldw	r3,128(sp)
   22f24:	d8801f17 	ldw	r2,124(sp)
   22f28:	da000404 	addi	r8,sp,16
   22f2c:	003fee06 	br	22ee8 <_gp+0xfffe1bb0>
   22f30:	9088703a 	and	r4,r18,r2
   22f34:	203eab1e 	bne	r4,zero,229e4 <_gp+0xfffe16ac>
   22f38:	dc401f17 	ldw	r17,124(sp)
   22f3c:	40800115 	stw	r2,4(r8)
   22f40:	44000015 	stw	r16,0(r8)
   22f44:	8c400044 	addi	r17,r17,1
   22f48:	d8c02015 	stw	r3,128(sp)
   22f4c:	dc401f15 	stw	r17,124(sp)
   22f50:	008001c4 	movi	r2,7
   22f54:	14400e16 	blt	r2,r17,22f90 <___vfprintf_internal_r+0x168c>
   22f58:	45800204 	addi	r22,r8,8
   22f5c:	003eca06 	br	22a88 <_gp+0xfffe1750>
   22f60:	01000134 	movhi	r4,4
   22f64:	2120f184 	addi	r4,r4,-31802
   22f68:	d9002c15 	stw	r4,176(sp)
   22f6c:	d8802c17 	ldw	r2,176(sp)
   22f70:	1c07883a 	add	r3,r3,r16
   22f74:	8c400044 	addi	r17,r17,1
   22f78:	b0800015 	stw	r2,0(r22)
   22f7c:	b4000115 	stw	r16,4(r22)
   22f80:	d8c02015 	stw	r3,128(sp)
   22f84:	dc401f15 	stw	r17,124(sp)
   22f88:	008001c4 	movi	r2,7
   22f8c:	147ebd0e 	bge	r2,r17,22a84 <_gp+0xfffe174c>
   22f90:	d9002d17 	ldw	r4,180(sp)
   22f94:	d9801e04 	addi	r6,sp,120
   22f98:	b80b883a 	mov	r5,r23
   22f9c:	002fcc00 	call	2fcc0 <__sprint_r>
   22fa0:	103b5c1e 	bne	r2,zero,21d14 <_gp+0xfffe09dc>
   22fa4:	d8c02017 	ldw	r3,128(sp)
   22fa8:	dc401f17 	ldw	r17,124(sp)
   22fac:	dd800404 	addi	r22,sp,16
   22fb0:	003eb506 	br	22a88 <_gp+0xfffe1750>
   22fb4:	d9002d17 	ldw	r4,180(sp)
   22fb8:	d9801e04 	addi	r6,sp,120
   22fbc:	b80b883a 	mov	r5,r23
   22fc0:	002fcc00 	call	2fcc0 <__sprint_r>
   22fc4:	103b531e 	bne	r2,zero,21d14 <_gp+0xfffe09dc>
   22fc8:	d8c02017 	ldw	r3,128(sp)
   22fcc:	dc401f17 	ldw	r17,124(sp)
   22fd0:	da000404 	addi	r8,sp,16
   22fd4:	003e8d06 	br	22a0c <_gp+0xfffe16d4>
   22fd8:	d9002d17 	ldw	r4,180(sp)
   22fdc:	d9801e04 	addi	r6,sp,120
   22fe0:	b80b883a 	mov	r5,r23
   22fe4:	002fcc00 	call	2fcc0 <__sprint_r>
   22fe8:	103b4a1e 	bne	r2,zero,21d14 <_gp+0xfffe09dc>
   22fec:	d8c02017 	ldw	r3,128(sp)
   22ff0:	dc401f17 	ldw	r17,124(sp)
   22ff4:	dd800404 	addi	r22,sp,16
   22ff8:	003e8f06 	br	22a38 <_gp+0xfffe1700>
   22ffc:	0027883a 	mov	r19,zero
   23000:	003f4a06 	br	22d2c <_gp+0xfffe19f4>
   23004:	d9002d17 	ldw	r4,180(sp)
   23008:	d9801e04 	addi	r6,sp,120
   2300c:	b80b883a 	mov	r5,r23
   23010:	002fcc00 	call	2fcc0 <__sprint_r>
   23014:	103b3f1e 	bne	r2,zero,21d14 <_gp+0xfffe09dc>
   23018:	d8c02017 	ldw	r3,128(sp)
   2301c:	da000404 	addi	r8,sp,16
   23020:	003c7b06 	br	22210 <_gp+0xfffe0ed8>
   23024:	d9402a17 	ldw	r5,168(sp)
   23028:	04e7c83a 	sub	r19,zero,r19
   2302c:	07000b44 	movi	fp,45
   23030:	9804c03a 	cmpne	r2,r19,zero
   23034:	05adc83a 	sub	r22,zero,r22
   23038:	df002785 	stb	fp,158(sp)
   2303c:	b0adc83a 	sub	r22,r22,r2
   23040:	28017b16 	blt	r5,zero,23630 <___vfprintf_internal_r+0x1d2c>
   23044:	00bfdfc4 	movi	r2,-129
   23048:	90a4703a 	and	r18,r18,r2
   2304c:	003b8906 	br	21e74 <_gp+0xfffe0b3c>
   23050:	d9003617 	ldw	r4,216(sp)
   23054:	d9403817 	ldw	r5,224(sp)
   23058:	da003d15 	stw	r8,244(sp)
   2305c:	002af800 	call	2af80 <__fpclassifyd>
   23060:	da003d17 	ldw	r8,244(sp)
   23064:	1000f026 	beq	r2,zero,23428 <___vfprintf_internal_r+0x1b24>
   23068:	d9002a17 	ldw	r4,168(sp)
   2306c:	05bff7c4 	movi	r22,-33
   23070:	00bfffc4 	movi	r2,-1
   23074:	8dac703a 	and	r22,r17,r22
   23078:	20820026 	beq	r4,r2,2387c <___vfprintf_internal_r+0x1f78>
   2307c:	008011c4 	movi	r2,71
   23080:	b081f726 	beq	r22,r2,23860 <___vfprintf_internal_r+0x1f5c>
   23084:	d9003817 	ldw	r4,224(sp)
   23088:	90c04014 	ori	r3,r18,256
   2308c:	d8c02c15 	stw	r3,176(sp)
   23090:	20021516 	blt	r4,zero,238e8 <___vfprintf_internal_r+0x1fe4>
   23094:	dcc03817 	ldw	r19,224(sp)
   23098:	d8002905 	stb	zero,164(sp)
   2309c:	00801984 	movi	r2,102
   230a0:	8881f926 	beq	r17,r2,23888 <___vfprintf_internal_r+0x1f84>
   230a4:	00801184 	movi	r2,70
   230a8:	88821c26 	beq	r17,r2,2391c <___vfprintf_internal_r+0x2018>
   230ac:	00801144 	movi	r2,69
   230b0:	b081ef26 	beq	r22,r2,23870 <___vfprintf_internal_r+0x1f6c>
   230b4:	d8c02a17 	ldw	r3,168(sp)
   230b8:	d8802104 	addi	r2,sp,132
   230bc:	d8800315 	stw	r2,12(sp)
   230c0:	d9403617 	ldw	r5,216(sp)
   230c4:	d8802504 	addi	r2,sp,148
   230c8:	d9002d17 	ldw	r4,180(sp)
   230cc:	d8800215 	stw	r2,8(sp)
   230d0:	d8802604 	addi	r2,sp,152
   230d4:	d8c00015 	stw	r3,0(sp)
   230d8:	d8800115 	stw	r2,4(sp)
   230dc:	01c00084 	movi	r7,2
   230e0:	980d883a 	mov	r6,r19
   230e4:	d8c03c15 	stw	r3,240(sp)
   230e8:	da003d15 	stw	r8,244(sp)
   230ec:	0025a900 	call	25a90 <_dtoa_r>
   230f0:	1021883a 	mov	r16,r2
   230f4:	008019c4 	movi	r2,103
   230f8:	d8c03c17 	ldw	r3,240(sp)
   230fc:	da003d17 	ldw	r8,244(sp)
   23100:	88817126 	beq	r17,r2,236c8 <___vfprintf_internal_r+0x1dc4>
   23104:	008011c4 	movi	r2,71
   23108:	88829126 	beq	r17,r2,23b50 <___vfprintf_internal_r+0x224c>
   2310c:	80f9883a 	add	fp,r16,r3
   23110:	d9003617 	ldw	r4,216(sp)
   23114:	000d883a 	mov	r6,zero
   23118:	000f883a 	mov	r7,zero
   2311c:	980b883a 	mov	r5,r19
   23120:	da003d15 	stw	r8,244(sp)
   23124:	00361900 	call	36190 <__eqdf2>
   23128:	da003d17 	ldw	r8,244(sp)
   2312c:	10018d26 	beq	r2,zero,23764 <___vfprintf_internal_r+0x1e60>
   23130:	d8802117 	ldw	r2,132(sp)
   23134:	1700062e 	bgeu	r2,fp,23150 <___vfprintf_internal_r+0x184c>
   23138:	01000c04 	movi	r4,48
   2313c:	10c00044 	addi	r3,r2,1
   23140:	d8c02115 	stw	r3,132(sp)
   23144:	11000005 	stb	r4,0(r2)
   23148:	d8802117 	ldw	r2,132(sp)
   2314c:	173ffb36 	bltu	r2,fp,2313c <_gp+0xfffe1e04>
   23150:	1405c83a 	sub	r2,r2,r16
   23154:	d8803315 	stw	r2,204(sp)
   23158:	008011c4 	movi	r2,71
   2315c:	b0817626 	beq	r22,r2,23738 <___vfprintf_internal_r+0x1e34>
   23160:	00801944 	movi	r2,101
   23164:	1442800e 	bge	r2,r17,23b68 <___vfprintf_internal_r+0x2264>
   23168:	d8c02617 	ldw	r3,152(sp)
   2316c:	00801984 	movi	r2,102
   23170:	d8c03215 	stw	r3,200(sp)
   23174:	8881fe26 	beq	r17,r2,23970 <___vfprintf_internal_r+0x206c>
   23178:	d8c03217 	ldw	r3,200(sp)
   2317c:	d9003317 	ldw	r4,204(sp)
   23180:	1901dd16 	blt	r3,r4,238f8 <___vfprintf_internal_r+0x1ff4>
   23184:	9480004c 	andi	r18,r18,1
   23188:	90022b1e 	bne	r18,zero,23a38 <___vfprintf_internal_r+0x2134>
   2318c:	1805883a 	mov	r2,r3
   23190:	18028316 	blt	r3,zero,23ba0 <___vfprintf_internal_r+0x229c>
   23194:	d8c03217 	ldw	r3,200(sp)
   23198:	044019c4 	movi	r17,103
   2319c:	d8c02b15 	stw	r3,172(sp)
   231a0:	df002907 	ldb	fp,164(sp)
   231a4:	e001531e 	bne	fp,zero,236f4 <___vfprintf_internal_r+0x1df0>
   231a8:	df002783 	ldbu	fp,158(sp)
   231ac:	d8802915 	stw	r2,164(sp)
   231b0:	dc802c17 	ldw	r18,176(sp)
   231b4:	d8002a15 	stw	zero,168(sp)
   231b8:	003baf06 	br	22078 <_gp+0xfffe0d40>
   231bc:	d8c02e17 	ldw	r3,184(sp)
   231c0:	d9002e17 	ldw	r4,184(sp)
   231c4:	d9402e17 	ldw	r5,184(sp)
   231c8:	18c00017 	ldw	r3,0(r3)
   231cc:	21000117 	ldw	r4,4(r4)
   231d0:	29400204 	addi	r5,r5,8
   231d4:	d8c03615 	stw	r3,216(sp)
   231d8:	d9003815 	stw	r4,224(sp)
   231dc:	d9402e15 	stw	r5,184(sp)
   231e0:	003b5006 	br	21f24 <_gp+0xfffe0bec>
   231e4:	ac400007 	ldb	r17,0(r21)
   231e8:	003a2806 	br	21a8c <_gp+0xfffe0754>
   231ec:	9080100c 	andi	r2,r18,64
   231f0:	1000a826 	beq	r2,zero,23494 <___vfprintf_internal_r+0x1b90>
   231f4:	d8c02e17 	ldw	r3,184(sp)
   231f8:	002d883a 	mov	r22,zero
   231fc:	1cc0000b 	ldhu	r19,0(r3)
   23200:	18c00104 	addi	r3,r3,4
   23204:	d8c02e15 	stw	r3,184(sp)
   23208:	003caf06 	br	224c8 <_gp+0xfffe1190>
   2320c:	d9002e17 	ldw	r4,184(sp)
   23210:	d9402a17 	ldw	r5,168(sp)
   23214:	002d883a 	mov	r22,zero
   23218:	20800104 	addi	r2,r4,4
   2321c:	24c00017 	ldw	r19,0(r4)
   23220:	283ebb0e 	bge	r5,zero,22d10 <_gp+0xfffe19d8>
   23224:	003ef106 	br	22dec <_gp+0xfffe1ab4>
   23228:	9080040c 	andi	r2,r18,16
   2322c:	1000921e 	bne	r2,zero,23478 <___vfprintf_internal_r+0x1b74>
   23230:	9480100c 	andi	r18,r18,64
   23234:	90013926 	beq	r18,zero,2371c <___vfprintf_internal_r+0x1e18>
   23238:	d9402e17 	ldw	r5,184(sp)
   2323c:	d8c02f17 	ldw	r3,188(sp)
   23240:	28800017 	ldw	r2,0(r5)
   23244:	29400104 	addi	r5,r5,4
   23248:	d9402e15 	stw	r5,184(sp)
   2324c:	10c0000d 	sth	r3,0(r2)
   23250:	0039e406 	br	219e4 <_gp+0xfffe06ac>
   23254:	9080100c 	andi	r2,r18,64
   23258:	10008026 	beq	r2,zero,2345c <___vfprintf_internal_r+0x1b58>
   2325c:	d8802e17 	ldw	r2,184(sp)
   23260:	14c0000f 	ldh	r19,0(r2)
   23264:	10800104 	addi	r2,r2,4
   23268:	d8802e15 	stw	r2,184(sp)
   2326c:	982dd7fa 	srai	r22,r19,31
   23270:	b005883a 	mov	r2,r22
   23274:	003af706 	br	21e54 <_gp+0xfffe0b1c>
   23278:	9080100c 	andi	r2,r18,64
   2327c:	d8002785 	stb	zero,158(sp)
   23280:	10008a1e 	bne	r2,zero,234ac <___vfprintf_internal_r+0x1ba8>
   23284:	d9002e17 	ldw	r4,184(sp)
   23288:	d9402a17 	ldw	r5,168(sp)
   2328c:	002d883a 	mov	r22,zero
   23290:	20800104 	addi	r2,r4,4
   23294:	24c00017 	ldw	r19,0(r4)
   23298:	283e4b0e 	bge	r5,zero,22bc8 <_gp+0xfffe1890>
   2329c:	9d86b03a 	or	r3,r19,r22
   232a0:	d8802e15 	stw	r2,184(sp)
   232a4:	183e4c1e 	bne	r3,zero,22bd8 <_gp+0xfffe18a0>
   232a8:	0039883a 	mov	fp,zero
   232ac:	0005883a 	mov	r2,zero
   232b0:	003d4006 	br	227b4 <_gp+0xfffe147c>
   232b4:	01400134 	movhi	r5,4
   232b8:	2960f184 	addi	r5,r5,-31802
   232bc:	d9402c15 	stw	r5,176(sp)
   232c0:	d9402c17 	ldw	r5,176(sp)
   232c4:	1c47883a 	add	r3,r3,r17
   232c8:	10800044 	addi	r2,r2,1
   232cc:	41400015 	stw	r5,0(r8)
   232d0:	44400115 	stw	r17,4(r8)
   232d4:	d8c02015 	stw	r3,128(sp)
   232d8:	d8801f15 	stw	r2,124(sp)
   232dc:	010001c4 	movi	r4,7
   232e0:	20bec816 	blt	r4,r2,22e04 <_gp+0xfffe1acc>
   232e4:	42000204 	addi	r8,r8,8
   232e8:	003ecd06 	br	22e20 <_gp+0xfffe1ae8>
   232ec:	d9002a17 	ldw	r4,168(sp)
   232f0:	d8002785 	stb	zero,158(sp)
   232f4:	203d2d16 	blt	r4,zero,227ac <_gp+0xfffe1474>
   232f8:	00bfdfc4 	movi	r2,-129
   232fc:	90a4703a 	and	r18,r18,r2
   23300:	003a6106 	br	21c88 <_gp+0xfffe0950>
   23304:	01000134 	movhi	r4,4
   23308:	2120f184 	addi	r4,r4,-31802
   2330c:	d9002c15 	stw	r4,176(sp)
   23310:	003bea06 	br	222bc <_gp+0xfffe0f84>
   23314:	d9002d17 	ldw	r4,180(sp)
   23318:	d9801e04 	addi	r6,sp,120
   2331c:	b80b883a 	mov	r5,r23
   23320:	002fcc00 	call	2fcc0 <__sprint_r>
   23324:	103a7b1e 	bne	r2,zero,21d14 <_gp+0xfffe09dc>
   23328:	d8c02017 	ldw	r3,128(sp)
   2332c:	da000404 	addi	r8,sp,16
   23330:	003d4106 	br	22838 <_gp+0xfffe1500>
   23334:	d8801f17 	ldw	r2,124(sp)
   23338:	01400134 	movhi	r5,4
   2333c:	01000044 	movi	r4,1
   23340:	18c00044 	addi	r3,r3,1
   23344:	10800044 	addi	r2,r2,1
   23348:	2960f104 	addi	r5,r5,-31804
   2334c:	41000115 	stw	r4,4(r8)
   23350:	41400015 	stw	r5,0(r8)
   23354:	d8c02015 	stw	r3,128(sp)
   23358:	d8801f15 	stw	r2,124(sp)
   2335c:	010001c4 	movi	r4,7
   23360:	20805c16 	blt	r4,r2,234d4 <___vfprintf_internal_r+0x1bd0>
   23364:	42000204 	addi	r8,r8,8
   23368:	8800041e 	bne	r17,zero,2337c <___vfprintf_internal_r+0x1a78>
   2336c:	d8803317 	ldw	r2,204(sp)
   23370:	1000021e 	bne	r2,zero,2337c <___vfprintf_internal_r+0x1a78>
   23374:	9080004c 	andi	r2,r18,1
   23378:	103be726 	beq	r2,zero,22318 <_gp+0xfffe0fe0>
   2337c:	d9003717 	ldw	r4,220(sp)
   23380:	d8801f17 	ldw	r2,124(sp)
   23384:	d9403417 	ldw	r5,208(sp)
   23388:	20c7883a 	add	r3,r4,r3
   2338c:	10800044 	addi	r2,r2,1
   23390:	41000115 	stw	r4,4(r8)
   23394:	41400015 	stw	r5,0(r8)
   23398:	d8c02015 	stw	r3,128(sp)
   2339c:	d8801f15 	stw	r2,124(sp)
   233a0:	010001c4 	movi	r4,7
   233a4:	20812116 	blt	r4,r2,2382c <___vfprintf_internal_r+0x1f28>
   233a8:	42000204 	addi	r8,r8,8
   233ac:	0463c83a 	sub	r17,zero,r17
   233b0:	0440730e 	bge	zero,r17,23580 <___vfprintf_internal_r+0x1c7c>
   233b4:	05800404 	movi	r22,16
   233b8:	b440860e 	bge	r22,r17,235d4 <___vfprintf_internal_r+0x1cd0>
   233bc:	01400134 	movhi	r5,4
   233c0:	2960f184 	addi	r5,r5,-31802
   233c4:	d9402c15 	stw	r5,176(sp)
   233c8:	070001c4 	movi	fp,7
   233cc:	dcc02d17 	ldw	r19,180(sp)
   233d0:	00000306 	br	233e0 <___vfprintf_internal_r+0x1adc>
   233d4:	42000204 	addi	r8,r8,8
   233d8:	8c7ffc04 	addi	r17,r17,-16
   233dc:	b440800e 	bge	r22,r17,235e0 <___vfprintf_internal_r+0x1cdc>
   233e0:	18c00404 	addi	r3,r3,16
   233e4:	10800044 	addi	r2,r2,1
   233e8:	45000015 	stw	r20,0(r8)
   233ec:	45800115 	stw	r22,4(r8)
   233f0:	d8c02015 	stw	r3,128(sp)
   233f4:	d8801f15 	stw	r2,124(sp)
   233f8:	e0bff60e 	bge	fp,r2,233d4 <_gp+0xfffe209c>
   233fc:	d9801e04 	addi	r6,sp,120
   23400:	b80b883a 	mov	r5,r23
   23404:	9809883a 	mov	r4,r19
   23408:	002fcc00 	call	2fcc0 <__sprint_r>
   2340c:	103a411e 	bne	r2,zero,21d14 <_gp+0xfffe09dc>
   23410:	d8c02017 	ldw	r3,128(sp)
   23414:	d8801f17 	ldw	r2,124(sp)
   23418:	da000404 	addi	r8,sp,16
   2341c:	003fee06 	br	233d8 <_gp+0xfffe20a0>
   23420:	00bfffc4 	movi	r2,-1
   23424:	003a3f06 	br	21d24 <_gp+0xfffe09ec>
   23428:	008011c4 	movi	r2,71
   2342c:	1440b816 	blt	r2,r17,23710 <___vfprintf_internal_r+0x1e0c>
   23430:	04000134 	movhi	r16,4
   23434:	8420e304 	addi	r16,r16,-31860
   23438:	00c000c4 	movi	r3,3
   2343c:	00bfdfc4 	movi	r2,-129
   23440:	d8c02915 	stw	r3,164(sp)
   23444:	90a4703a 	and	r18,r18,r2
   23448:	df002783 	ldbu	fp,158(sp)
   2344c:	d8c02b15 	stw	r3,172(sp)
   23450:	d8002a15 	stw	zero,168(sp)
   23454:	d8003215 	stw	zero,200(sp)
   23458:	003b0706 	br	22078 <_gp+0xfffe0d40>
   2345c:	d8c02e17 	ldw	r3,184(sp)
   23460:	1cc00017 	ldw	r19,0(r3)
   23464:	18c00104 	addi	r3,r3,4
   23468:	d8c02e15 	stw	r3,184(sp)
   2346c:	982dd7fa 	srai	r22,r19,31
   23470:	b005883a 	mov	r2,r22
   23474:	003a7706 	br	21e54 <_gp+0xfffe0b1c>
   23478:	d8c02e17 	ldw	r3,184(sp)
   2347c:	d9002f17 	ldw	r4,188(sp)
   23480:	18800017 	ldw	r2,0(r3)
   23484:	18c00104 	addi	r3,r3,4
   23488:	d8c02e15 	stw	r3,184(sp)
   2348c:	11000015 	stw	r4,0(r2)
   23490:	00395406 	br	219e4 <_gp+0xfffe06ac>
   23494:	d9002e17 	ldw	r4,184(sp)
   23498:	002d883a 	mov	r22,zero
   2349c:	24c00017 	ldw	r19,0(r4)
   234a0:	21000104 	addi	r4,r4,4
   234a4:	d9002e15 	stw	r4,184(sp)
   234a8:	003c0706 	br	224c8 <_gp+0xfffe1190>
   234ac:	d9402e17 	ldw	r5,184(sp)
   234b0:	d8c02a17 	ldw	r3,168(sp)
   234b4:	002d883a 	mov	r22,zero
   234b8:	28800104 	addi	r2,r5,4
   234bc:	2cc0000b 	ldhu	r19,0(r5)
   234c0:	183dc10e 	bge	r3,zero,22bc8 <_gp+0xfffe1890>
   234c4:	003f7506 	br	2329c <_gp+0xfffe1f64>
   234c8:	04000134 	movhi	r16,4
   234cc:	8420e104 	addi	r16,r16,-31868
   234d0:	003aa706 	br	21f70 <_gp+0xfffe0c38>
   234d4:	d9002d17 	ldw	r4,180(sp)
   234d8:	d9801e04 	addi	r6,sp,120
   234dc:	b80b883a 	mov	r5,r23
   234e0:	002fcc00 	call	2fcc0 <__sprint_r>
   234e4:	103a0b1e 	bne	r2,zero,21d14 <_gp+0xfffe09dc>
   234e8:	dc402617 	ldw	r17,152(sp)
   234ec:	d8c02017 	ldw	r3,128(sp)
   234f0:	da000404 	addi	r8,sp,16
   234f4:	003f9c06 	br	23368 <_gp+0xfffe2030>
   234f8:	ac400043 	ldbu	r17,1(r21)
   234fc:	84000814 	ori	r16,r16,32
   23500:	ad400044 	addi	r21,r21,1
   23504:	8c403fcc 	andi	r17,r17,255
   23508:	8c40201c 	xori	r17,r17,128
   2350c:	8c7fe004 	addi	r17,r17,-128
   23510:	00395e06 	br	21a8c <_gp+0xfffe0754>
   23514:	d8c02e15 	stw	r3,184(sp)
   23518:	0039883a 	mov	fp,zero
   2351c:	003e3506 	br	22df4 <_gp+0xfffe1abc>
   23520:	d9002d17 	ldw	r4,180(sp)
   23524:	d9801e04 	addi	r6,sp,120
   23528:	b80b883a 	mov	r5,r23
   2352c:	002fcc00 	call	2fcc0 <__sprint_r>
   23530:	1039f81e 	bne	r2,zero,21d14 <_gp+0xfffe09dc>
   23534:	d8c02017 	ldw	r3,128(sp)
   23538:	da000404 	addi	r8,sp,16
   2353c:	003cd006 	br	22880 <_gp+0xfffe1548>
   23540:	8009883a 	mov	r4,r16
   23544:	df003d15 	stw	fp,244(sp)
   23548:	002186c0 	call	2186c <strlen>
   2354c:	d8802b15 	stw	r2,172(sp)
   23550:	da003d17 	ldw	r8,244(sp)
   23554:	103c200e 	bge	r2,zero,225d8 <_gp+0xfffe12a0>
   23558:	0005883a 	mov	r2,zero
   2355c:	003c1e06 	br	225d8 <_gp+0xfffe12a0>
   23560:	d9002d17 	ldw	r4,180(sp)
   23564:	d9801e04 	addi	r6,sp,120
   23568:	b80b883a 	mov	r5,r23
   2356c:	002fcc00 	call	2fcc0 <__sprint_r>
   23570:	1039e81e 	bne	r2,zero,21d14 <_gp+0xfffe09dc>
   23574:	d8c02017 	ldw	r3,128(sp)
   23578:	d8801f17 	ldw	r2,124(sp)
   2357c:	da000404 	addi	r8,sp,16
   23580:	d9403317 	ldw	r5,204(sp)
   23584:	10800044 	addi	r2,r2,1
   23588:	44000015 	stw	r16,0(r8)
   2358c:	28c7883a 	add	r3,r5,r3
   23590:	003b5b06 	br	22300 <_gp+0xfffe0fc8>
   23594:	01000134 	movhi	r4,4
   23598:	2120f584 	addi	r4,r4,-31786
   2359c:	d9003515 	stw	r4,212(sp)
   235a0:	003af206 	br	2216c <_gp+0xfffe0e34>
   235a4:	013fffc4 	movi	r4,-1
   235a8:	003a0806 	br	21dcc <_gp+0xfffe0a94>
   235ac:	0023883a 	mov	r17,zero
   235b0:	003d9d06 	br	22c28 <_gp+0xfffe18f0>
   235b4:	d9002d17 	ldw	r4,180(sp)
   235b8:	d9801e04 	addi	r6,sp,120
   235bc:	b80b883a 	mov	r5,r23
   235c0:	002fcc00 	call	2fcc0 <__sprint_r>
   235c4:	1039d31e 	bne	r2,zero,21d14 <_gp+0xfffe09dc>
   235c8:	d8c02017 	ldw	r3,128(sp)
   235cc:	da000404 	addi	r8,sp,16
   235d0:	003d9406 	br	22c24 <_gp+0xfffe18ec>
   235d4:	01000134 	movhi	r4,4
   235d8:	2120f184 	addi	r4,r4,-31802
   235dc:	d9002c15 	stw	r4,176(sp)
   235e0:	d9002c17 	ldw	r4,176(sp)
   235e4:	1c47883a 	add	r3,r3,r17
   235e8:	10800044 	addi	r2,r2,1
   235ec:	41000015 	stw	r4,0(r8)
   235f0:	44400115 	stw	r17,4(r8)
   235f4:	d8c02015 	stw	r3,128(sp)
   235f8:	d8801f15 	stw	r2,124(sp)
   235fc:	010001c4 	movi	r4,7
   23600:	20bfd716 	blt	r4,r2,23560 <_gp+0xfffe2228>
   23604:	42000204 	addi	r8,r8,8
   23608:	003fdd06 	br	23580 <_gp+0xfffe2248>
   2360c:	d9002d17 	ldw	r4,180(sp)
   23610:	d9801e04 	addi	r6,sp,120
   23614:	b80b883a 	mov	r5,r23
   23618:	002fcc00 	call	2fcc0 <__sprint_r>
   2361c:	1039bd1e 	bne	r2,zero,21d14 <_gp+0xfffe09dc>
   23620:	d8802617 	ldw	r2,152(sp)
   23624:	d8c02017 	ldw	r3,128(sp)
   23628:	da000404 	addi	r8,sp,16
   2362c:	003e1006 	br	22e70 <_gp+0xfffe1b38>
   23630:	00800044 	movi	r2,1
   23634:	10803fcc 	andi	r2,r2,255
   23638:	00c00044 	movi	r3,1
   2363c:	10fa0d26 	beq	r2,r3,21e74 <_gp+0xfffe0b3c>
   23640:	00c00084 	movi	r3,2
   23644:	10fbaf26 	beq	r2,r3,22504 <_gp+0xfffe11cc>
   23648:	003a6d06 	br	22000 <_gp+0xfffe0cc8>
   2364c:	01000134 	movhi	r4,4
   23650:	2120f584 	addi	r4,r4,-31786
   23654:	d9003515 	stw	r4,212(sp)
   23658:	003b5406 	br	223ac <_gp+0xfffe1074>
   2365c:	d8802a17 	ldw	r2,168(sp)
   23660:	00c00184 	movi	r3,6
   23664:	1880012e 	bgeu	r3,r2,2366c <___vfprintf_internal_r+0x1d68>
   23668:	1805883a 	mov	r2,r3
   2366c:	d8802b15 	stw	r2,172(sp)
   23670:	1000ef16 	blt	r2,zero,23a30 <___vfprintf_internal_r+0x212c>
   23674:	04000134 	movhi	r16,4
   23678:	d8802915 	stw	r2,164(sp)
   2367c:	dcc02e15 	stw	r19,184(sp)
   23680:	d8002a15 	stw	zero,168(sp)
   23684:	d8003215 	stw	zero,200(sp)
   23688:	8420ef04 	addi	r16,r16,-31812
   2368c:	0039883a 	mov	fp,zero
   23690:	003a8006 	br	22094 <_gp+0xfffe0d5c>
   23694:	0021883a 	mov	r16,zero
   23698:	003e0706 	br	22eb8 <_gp+0xfffe1b80>
   2369c:	d9002d17 	ldw	r4,180(sp)
   236a0:	d9801e04 	addi	r6,sp,120
   236a4:	b80b883a 	mov	r5,r23
   236a8:	002fcc00 	call	2fcc0 <__sprint_r>
   236ac:	1039991e 	bne	r2,zero,21d14 <_gp+0xfffe09dc>
   236b0:	d8802617 	ldw	r2,152(sp)
   236b4:	d9403317 	ldw	r5,204(sp)
   236b8:	d8c02017 	ldw	r3,128(sp)
   236bc:	da000404 	addi	r8,sp,16
   236c0:	2885c83a 	sub	r2,r5,r2
   236c4:	003dfb06 	br	22eb4 <_gp+0xfffe1b7c>
   236c8:	9080004c 	andi	r2,r18,1
   236cc:	103e8f1e 	bne	r2,zero,2310c <_gp+0xfffe1dd4>
   236d0:	d8802117 	ldw	r2,132(sp)
   236d4:	003e9e06 	br	23150 <_gp+0xfffe1e18>
   236d8:	1025883a 	mov	r18,r2
   236dc:	0039883a 	mov	fp,zero
   236e0:	00800084 	movi	r2,2
   236e4:	003fd306 	br	23634 <_gp+0xfffe22fc>
   236e8:	07000b44 	movi	fp,45
   236ec:	df002785 	stb	fp,158(sp)
   236f0:	003a1b06 	br	21f60 <_gp+0xfffe0c28>
   236f4:	00c00b44 	movi	r3,45
   236f8:	d8c02785 	stb	r3,158(sp)
   236fc:	d8802915 	stw	r2,164(sp)
   23700:	dc802c17 	ldw	r18,176(sp)
   23704:	d8002a15 	stw	zero,168(sp)
   23708:	07000b44 	movi	fp,45
   2370c:	003a5e06 	br	22088 <_gp+0xfffe0d50>
   23710:	04000134 	movhi	r16,4
   23714:	8420e404 	addi	r16,r16,-31856
   23718:	003f4706 	br	23438 <_gp+0xfffe2100>
   2371c:	d9002e17 	ldw	r4,184(sp)
   23720:	d9402f17 	ldw	r5,188(sp)
   23724:	20800017 	ldw	r2,0(r4)
   23728:	21000104 	addi	r4,r4,4
   2372c:	d9002e15 	stw	r4,184(sp)
   23730:	11400015 	stw	r5,0(r2)
   23734:	0038ab06 	br	219e4 <_gp+0xfffe06ac>
   23738:	dd802617 	ldw	r22,152(sp)
   2373c:	00bfff44 	movi	r2,-3
   23740:	b0801c16 	blt	r22,r2,237b4 <___vfprintf_internal_r+0x1eb0>
   23744:	d9402a17 	ldw	r5,168(sp)
   23748:	2d801a16 	blt	r5,r22,237b4 <___vfprintf_internal_r+0x1eb0>
   2374c:	dd803215 	stw	r22,200(sp)
   23750:	003e8906 	br	23178 <_gp+0xfffe1e40>
   23754:	01000134 	movhi	r4,4
   23758:	2120f184 	addi	r4,r4,-31802
   2375c:	d9002c15 	stw	r4,176(sp)
   23760:	003c9106 	br	229a8 <_gp+0xfffe1670>
   23764:	e005883a 	mov	r2,fp
   23768:	003e7906 	br	23150 <_gp+0xfffe1e18>
   2376c:	d9002a17 	ldw	r4,168(sp)
   23770:	df002783 	ldbu	fp,158(sp)
   23774:	dcc02e15 	stw	r19,184(sp)
   23778:	d9002915 	stw	r4,164(sp)
   2377c:	d9002b15 	stw	r4,172(sp)
   23780:	d8002a15 	stw	zero,168(sp)
   23784:	d8003215 	stw	zero,200(sp)
   23788:	003a3b06 	br	22078 <_gp+0xfffe0d40>
   2378c:	9080004c 	andi	r2,r18,1
   23790:	0039883a 	mov	fp,zero
   23794:	10000426 	beq	r2,zero,237a8 <___vfprintf_internal_r+0x1ea4>
   23798:	00800c04 	movi	r2,48
   2379c:	dc001dc4 	addi	r16,sp,119
   237a0:	d8801dc5 	stb	r2,119(sp)
   237a4:	003b6406 	br	22538 <_gp+0xfffe1200>
   237a8:	d8002b15 	stw	zero,172(sp)
   237ac:	dc001e04 	addi	r16,sp,120
   237b0:	003a2b06 	br	22060 <_gp+0xfffe0d28>
   237b4:	8c7fff84 	addi	r17,r17,-2
   237b8:	b5bfffc4 	addi	r22,r22,-1
   237bc:	dd802615 	stw	r22,152(sp)
   237c0:	dc4022c5 	stb	r17,139(sp)
   237c4:	b000bf16 	blt	r22,zero,23ac4 <___vfprintf_internal_r+0x21c0>
   237c8:	00800ac4 	movi	r2,43
   237cc:	d8802305 	stb	r2,140(sp)
   237d0:	00800244 	movi	r2,9
   237d4:	15807016 	blt	r2,r22,23998 <___vfprintf_internal_r+0x2094>
   237d8:	00800c04 	movi	r2,48
   237dc:	b5800c04 	addi	r22,r22,48
   237e0:	d8802345 	stb	r2,141(sp)
   237e4:	dd802385 	stb	r22,142(sp)
   237e8:	d88023c4 	addi	r2,sp,143
   237ec:	df0022c4 	addi	fp,sp,139
   237f0:	d8c03317 	ldw	r3,204(sp)
   237f4:	1739c83a 	sub	fp,r2,fp
   237f8:	d9003317 	ldw	r4,204(sp)
   237fc:	e0c7883a 	add	r3,fp,r3
   23800:	df003a15 	stw	fp,232(sp)
   23804:	d8c02b15 	stw	r3,172(sp)
   23808:	00800044 	movi	r2,1
   2380c:	1100b30e 	bge	r2,r4,23adc <___vfprintf_internal_r+0x21d8>
   23810:	d8c02b17 	ldw	r3,172(sp)
   23814:	18c00044 	addi	r3,r3,1
   23818:	d8c02b15 	stw	r3,172(sp)
   2381c:	1805883a 	mov	r2,r3
   23820:	1800ac16 	blt	r3,zero,23ad4 <___vfprintf_internal_r+0x21d0>
   23824:	d8003215 	stw	zero,200(sp)
   23828:	003e5d06 	br	231a0 <_gp+0xfffe1e68>
   2382c:	d9002d17 	ldw	r4,180(sp)
   23830:	d9801e04 	addi	r6,sp,120
   23834:	b80b883a 	mov	r5,r23
   23838:	002fcc00 	call	2fcc0 <__sprint_r>
   2383c:	1039351e 	bne	r2,zero,21d14 <_gp+0xfffe09dc>
   23840:	dc402617 	ldw	r17,152(sp)
   23844:	d8c02017 	ldw	r3,128(sp)
   23848:	d8801f17 	ldw	r2,124(sp)
   2384c:	da000404 	addi	r8,sp,16
   23850:	003ed606 	br	233ac <_gp+0xfffe2074>
   23854:	182b883a 	mov	r21,r3
   23858:	d8002a15 	stw	zero,168(sp)
   2385c:	00388c06 	br	21a90 <_gp+0xfffe0758>
   23860:	d8802a17 	ldw	r2,168(sp)
   23864:	103e071e 	bne	r2,zero,23084 <_gp+0xfffe1d4c>
   23868:	dc002a15 	stw	r16,168(sp)
   2386c:	003e0506 	br	23084 <_gp+0xfffe1d4c>
   23870:	d9002a17 	ldw	r4,168(sp)
   23874:	20c00044 	addi	r3,r4,1
   23878:	003e0f06 	br	230b8 <_gp+0xfffe1d80>
   2387c:	01400184 	movi	r5,6
   23880:	d9402a15 	stw	r5,168(sp)
   23884:	003dff06 	br	23084 <_gp+0xfffe1d4c>
   23888:	d8802104 	addi	r2,sp,132
   2388c:	d8800315 	stw	r2,12(sp)
   23890:	d8802504 	addi	r2,sp,148
   23894:	d8800215 	stw	r2,8(sp)
   23898:	d8802604 	addi	r2,sp,152
   2389c:	d8800115 	stw	r2,4(sp)
   238a0:	d8802a17 	ldw	r2,168(sp)
   238a4:	d9403617 	ldw	r5,216(sp)
   238a8:	d9002d17 	ldw	r4,180(sp)
   238ac:	d8800015 	stw	r2,0(sp)
   238b0:	01c000c4 	movi	r7,3
   238b4:	980d883a 	mov	r6,r19
   238b8:	da003d15 	stw	r8,244(sp)
   238bc:	0025a900 	call	25a90 <_dtoa_r>
   238c0:	d8c02a17 	ldw	r3,168(sp)
   238c4:	da003d17 	ldw	r8,244(sp)
   238c8:	1021883a 	mov	r16,r2
   238cc:	10f9883a 	add	fp,r2,r3
   238d0:	81000007 	ldb	r4,0(r16)
   238d4:	00800c04 	movi	r2,48
   238d8:	20805e26 	beq	r4,r2,23a54 <___vfprintf_internal_r+0x2150>
   238dc:	d8c02617 	ldw	r3,152(sp)
   238e0:	e0f9883a 	add	fp,fp,r3
   238e4:	003e0a06 	br	23110 <_gp+0xfffe1dd8>
   238e8:	00c00b44 	movi	r3,45
   238ec:	24e0003c 	xorhi	r19,r4,32768
   238f0:	d8c02905 	stb	r3,164(sp)
   238f4:	003de906 	br	2309c <_gp+0xfffe1d64>
   238f8:	d8c03217 	ldw	r3,200(sp)
   238fc:	00c07a0e 	bge	zero,r3,23ae8 <___vfprintf_internal_r+0x21e4>
   23900:	00800044 	movi	r2,1
   23904:	d9003317 	ldw	r4,204(sp)
   23908:	1105883a 	add	r2,r2,r4
   2390c:	d8802b15 	stw	r2,172(sp)
   23910:	10004e16 	blt	r2,zero,23a4c <___vfprintf_internal_r+0x2148>
   23914:	044019c4 	movi	r17,103
   23918:	003e2106 	br	231a0 <_gp+0xfffe1e68>
   2391c:	d9002a17 	ldw	r4,168(sp)
   23920:	d8802104 	addi	r2,sp,132
   23924:	d8800315 	stw	r2,12(sp)
   23928:	d9000015 	stw	r4,0(sp)
   2392c:	d8802504 	addi	r2,sp,148
   23930:	d9403617 	ldw	r5,216(sp)
   23934:	d9002d17 	ldw	r4,180(sp)
   23938:	d8800215 	stw	r2,8(sp)
   2393c:	d8802604 	addi	r2,sp,152
   23940:	d8800115 	stw	r2,4(sp)
   23944:	01c000c4 	movi	r7,3
   23948:	980d883a 	mov	r6,r19
   2394c:	da003d15 	stw	r8,244(sp)
   23950:	0025a900 	call	25a90 <_dtoa_r>
   23954:	d8c02a17 	ldw	r3,168(sp)
   23958:	da003d17 	ldw	r8,244(sp)
   2395c:	1021883a 	mov	r16,r2
   23960:	00801184 	movi	r2,70
   23964:	80f9883a 	add	fp,r16,r3
   23968:	88bfd926 	beq	r17,r2,238d0 <_gp+0xfffe2598>
   2396c:	003de806 	br	23110 <_gp+0xfffe1dd8>
   23970:	d9002a17 	ldw	r4,168(sp)
   23974:	00c04d0e 	bge	zero,r3,23aac <___vfprintf_internal_r+0x21a8>
   23978:	2000441e 	bne	r4,zero,23a8c <___vfprintf_internal_r+0x2188>
   2397c:	9480004c 	andi	r18,r18,1
   23980:	9000421e 	bne	r18,zero,23a8c <___vfprintf_internal_r+0x2188>
   23984:	1805883a 	mov	r2,r3
   23988:	18006f16 	blt	r3,zero,23b48 <___vfprintf_internal_r+0x2244>
   2398c:	d8c03217 	ldw	r3,200(sp)
   23990:	d8c02b15 	stw	r3,172(sp)
   23994:	003e0206 	br	231a0 <_gp+0xfffe1e68>
   23998:	df0022c4 	addi	fp,sp,139
   2399c:	dc002a15 	stw	r16,168(sp)
   239a0:	4027883a 	mov	r19,r8
   239a4:	e021883a 	mov	r16,fp
   239a8:	b009883a 	mov	r4,r22
   239ac:	01400284 	movi	r5,10
   239b0:	0034bc00 	call	34bc0 <__modsi3>
   239b4:	10800c04 	addi	r2,r2,48
   239b8:	843fffc4 	addi	r16,r16,-1
   239bc:	b009883a 	mov	r4,r22
   239c0:	01400284 	movi	r5,10
   239c4:	80800005 	stb	r2,0(r16)
   239c8:	0034b3c0 	call	34b3c <__divsi3>
   239cc:	102d883a 	mov	r22,r2
   239d0:	00800244 	movi	r2,9
   239d4:	15bff416 	blt	r2,r22,239a8 <_gp+0xfffe2670>
   239d8:	9811883a 	mov	r8,r19
   239dc:	b0800c04 	addi	r2,r22,48
   239e0:	8027883a 	mov	r19,r16
   239e4:	997fffc4 	addi	r5,r19,-1
   239e8:	98bfffc5 	stb	r2,-1(r19)
   239ec:	dc002a17 	ldw	r16,168(sp)
   239f0:	2f006d2e 	bgeu	r5,fp,23ba8 <___vfprintf_internal_r+0x22a4>
   239f4:	d9c02384 	addi	r7,sp,142
   239f8:	3ccfc83a 	sub	r7,r7,r19
   239fc:	d9002344 	addi	r4,sp,141
   23a00:	e1cf883a 	add	r7,fp,r7
   23a04:	00000106 	br	23a0c <___vfprintf_internal_r+0x2108>
   23a08:	28800003 	ldbu	r2,0(r5)
   23a0c:	20800005 	stb	r2,0(r4)
   23a10:	21000044 	addi	r4,r4,1
   23a14:	29400044 	addi	r5,r5,1
   23a18:	393ffb1e 	bne	r7,r4,23a08 <_gp+0xfffe26d0>
   23a1c:	d8802304 	addi	r2,sp,140
   23a20:	14c5c83a 	sub	r2,r2,r19
   23a24:	d8c02344 	addi	r3,sp,141
   23a28:	1885883a 	add	r2,r3,r2
   23a2c:	003f7006 	br	237f0 <_gp+0xfffe24b8>
   23a30:	0005883a 	mov	r2,zero
   23a34:	003f0f06 	br	23674 <_gp+0xfffe233c>
   23a38:	d8c03217 	ldw	r3,200(sp)
   23a3c:	18c00044 	addi	r3,r3,1
   23a40:	d8c02b15 	stw	r3,172(sp)
   23a44:	1805883a 	mov	r2,r3
   23a48:	183fb20e 	bge	r3,zero,23914 <_gp+0xfffe25dc>
   23a4c:	0005883a 	mov	r2,zero
   23a50:	003fb006 	br	23914 <_gp+0xfffe25dc>
   23a54:	d9003617 	ldw	r4,216(sp)
   23a58:	000d883a 	mov	r6,zero
   23a5c:	000f883a 	mov	r7,zero
   23a60:	980b883a 	mov	r5,r19
   23a64:	d8c03c15 	stw	r3,240(sp)
   23a68:	da003d15 	stw	r8,244(sp)
   23a6c:	00361900 	call	36190 <__eqdf2>
   23a70:	d8c03c17 	ldw	r3,240(sp)
   23a74:	da003d17 	ldw	r8,244(sp)
   23a78:	103f9826 	beq	r2,zero,238dc <_gp+0xfffe25a4>
   23a7c:	00800044 	movi	r2,1
   23a80:	10c7c83a 	sub	r3,r2,r3
   23a84:	d8c02615 	stw	r3,152(sp)
   23a88:	003f9506 	br	238e0 <_gp+0xfffe25a8>
   23a8c:	d9002a17 	ldw	r4,168(sp)
   23a90:	d8c03217 	ldw	r3,200(sp)
   23a94:	20800044 	addi	r2,r4,1
   23a98:	1885883a 	add	r2,r3,r2
   23a9c:	d8802b15 	stw	r2,172(sp)
   23aa0:	103dbf0e 	bge	r2,zero,231a0 <_gp+0xfffe1e68>
   23aa4:	0005883a 	mov	r2,zero
   23aa8:	003dbd06 	br	231a0 <_gp+0xfffe1e68>
   23aac:	2000201e 	bne	r4,zero,23b30 <___vfprintf_internal_r+0x222c>
   23ab0:	9480004c 	andi	r18,r18,1
   23ab4:	90001e1e 	bne	r18,zero,23b30 <___vfprintf_internal_r+0x222c>
   23ab8:	00800044 	movi	r2,1
   23abc:	d8802b15 	stw	r2,172(sp)
   23ac0:	003db706 	br	231a0 <_gp+0xfffe1e68>
   23ac4:	00800b44 	movi	r2,45
   23ac8:	05adc83a 	sub	r22,zero,r22
   23acc:	d8802305 	stb	r2,140(sp)
   23ad0:	003f3f06 	br	237d0 <_gp+0xfffe2498>
   23ad4:	0005883a 	mov	r2,zero
   23ad8:	003f5206 	br	23824 <_gp+0xfffe24ec>
   23adc:	90a4703a 	and	r18,r18,r2
   23ae0:	903f4e26 	beq	r18,zero,2381c <_gp+0xfffe24e4>
   23ae4:	003f4a06 	br	23810 <_gp+0xfffe24d8>
   23ae8:	00800084 	movi	r2,2
   23aec:	10c5c83a 	sub	r2,r2,r3
   23af0:	003f8406 	br	23904 <_gp+0xfffe25cc>
   23af4:	d9402e17 	ldw	r5,184(sp)
   23af8:	d9002e17 	ldw	r4,184(sp)
   23afc:	ac400043 	ldbu	r17,1(r21)
   23b00:	29400017 	ldw	r5,0(r5)
   23b04:	20800104 	addi	r2,r4,4
   23b08:	d8802e15 	stw	r2,184(sp)
   23b0c:	d9402a15 	stw	r5,168(sp)
   23b10:	182b883a 	mov	r21,r3
   23b14:	283e7b0e 	bge	r5,zero,23504 <_gp+0xfffe21cc>
   23b18:	8c403fcc 	andi	r17,r17,255
   23b1c:	017fffc4 	movi	r5,-1
   23b20:	8c40201c 	xori	r17,r17,128
   23b24:	d9402a15 	stw	r5,168(sp)
   23b28:	8c7fe004 	addi	r17,r17,-128
   23b2c:	0037d706 	br	21a8c <_gp+0xfffe0754>
   23b30:	d8c02a17 	ldw	r3,168(sp)
   23b34:	18c00084 	addi	r3,r3,2
   23b38:	d8c02b15 	stw	r3,172(sp)
   23b3c:	1805883a 	mov	r2,r3
   23b40:	183d970e 	bge	r3,zero,231a0 <_gp+0xfffe1e68>
   23b44:	003fd706 	br	23aa4 <_gp+0xfffe276c>
   23b48:	0005883a 	mov	r2,zero
   23b4c:	003f8f06 	br	2398c <_gp+0xfffe2654>
   23b50:	9080004c 	andi	r2,r18,1
   23b54:	103f821e 	bne	r2,zero,23960 <_gp+0xfffe2628>
   23b58:	d8802117 	ldw	r2,132(sp)
   23b5c:	1405c83a 	sub	r2,r2,r16
   23b60:	d8803315 	stw	r2,204(sp)
   23b64:	b47ef426 	beq	r22,r17,23738 <_gp+0xfffe2400>
   23b68:	dd802617 	ldw	r22,152(sp)
   23b6c:	003f1206 	br	237b8 <_gp+0xfffe2480>
   23b70:	d8c02b03 	ldbu	r3,172(sp)
   23b74:	d8c02785 	stb	r3,158(sp)
   23b78:	0038df06 	br	21ef8 <_gp+0xfffe0bc0>
   23b7c:	d8c02b03 	ldbu	r3,172(sp)
   23b80:	d8c02785 	stb	r3,158(sp)
   23b84:	0038aa06 	br	21e30 <_gp+0xfffe0af8>
   23b88:	d8c02b03 	ldbu	r3,172(sp)
   23b8c:	d8c02785 	stb	r3,158(sp)
   23b90:	003a4306 	br	224a0 <_gp+0xfffe1168>
   23b94:	d8c02b03 	ldbu	r3,172(sp)
   23b98:	d8c02785 	stb	r3,158(sp)
   23b9c:	003af506 	br	22774 <_gp+0xfffe143c>
   23ba0:	0005883a 	mov	r2,zero
   23ba4:	003d7b06 	br	23194 <_gp+0xfffe1e5c>
   23ba8:	d8802344 	addi	r2,sp,141
   23bac:	003f1006 	br	237f0 <_gp+0xfffe24b8>
   23bb0:	d8c02b03 	ldbu	r3,172(sp)
   23bb4:	d8c02785 	stb	r3,158(sp)
   23bb8:	0038fd06 	br	21fb0 <_gp+0xfffe0c78>
   23bbc:	d8c02b03 	ldbu	r3,172(sp)
   23bc0:	d8c02785 	stb	r3,158(sp)
   23bc4:	003a9706 	br	22624 <_gp+0xfffe12ec>
   23bc8:	d8c02b03 	ldbu	r3,172(sp)
   23bcc:	d8c02785 	stb	r3,158(sp)
   23bd0:	003a1806 	br	22434 <_gp+0xfffe10fc>
   23bd4:	d8c02b03 	ldbu	r3,172(sp)
   23bd8:	d8c02785 	stb	r3,158(sp)
   23bdc:	003abe06 	br	226d8 <_gp+0xfffe13a0>

00023be0 <__vfprintf_internal>:
   23be0:	00800134 	movhi	r2,4
   23be4:	10a4cf04 	addi	r2,r2,-27844
   23be8:	300f883a 	mov	r7,r6
   23bec:	280d883a 	mov	r6,r5
   23bf0:	200b883a 	mov	r5,r4
   23bf4:	11000017 	ldw	r4,0(r2)
   23bf8:	00219041 	jmpi	21904 <___vfprintf_internal_r>

00023bfc <__sbprintf>:
   23bfc:	2880030b 	ldhu	r2,12(r5)
   23c00:	2ac01917 	ldw	r11,100(r5)
   23c04:	2a80038b 	ldhu	r10,14(r5)
   23c08:	2a400717 	ldw	r9,28(r5)
   23c0c:	2a000917 	ldw	r8,36(r5)
   23c10:	defee204 	addi	sp,sp,-1144
   23c14:	00c10004 	movi	r3,1024
   23c18:	dc011a15 	stw	r16,1128(sp)
   23c1c:	10bfff4c 	andi	r2,r2,65533
   23c20:	2821883a 	mov	r16,r5
   23c24:	d8cb883a 	add	r5,sp,r3
   23c28:	dc811c15 	stw	r18,1136(sp)
   23c2c:	dc411b15 	stw	r17,1132(sp)
   23c30:	dfc11d15 	stw	ra,1140(sp)
   23c34:	2025883a 	mov	r18,r4
   23c38:	d881030d 	sth	r2,1036(sp)
   23c3c:	dac11915 	stw	r11,1124(sp)
   23c40:	da81038d 	sth	r10,1038(sp)
   23c44:	da410715 	stw	r9,1052(sp)
   23c48:	da010915 	stw	r8,1060(sp)
   23c4c:	dec10015 	stw	sp,1024(sp)
   23c50:	dec10415 	stw	sp,1040(sp)
   23c54:	d8c10215 	stw	r3,1032(sp)
   23c58:	d8c10515 	stw	r3,1044(sp)
   23c5c:	d8010615 	stw	zero,1048(sp)
   23c60:	00219040 	call	21904 <___vfprintf_internal_r>
   23c64:	1023883a 	mov	r17,r2
   23c68:	10000416 	blt	r2,zero,23c7c <__sbprintf+0x80>
   23c6c:	d9410004 	addi	r5,sp,1024
   23c70:	9009883a 	mov	r4,r18
   23c74:	00273340 	call	27334 <_fflush_r>
   23c78:	10000d1e 	bne	r2,zero,23cb0 <__sbprintf+0xb4>
   23c7c:	d881030b 	ldhu	r2,1036(sp)
   23c80:	1080100c 	andi	r2,r2,64
   23c84:	10000326 	beq	r2,zero,23c94 <__sbprintf+0x98>
   23c88:	8080030b 	ldhu	r2,12(r16)
   23c8c:	10801014 	ori	r2,r2,64
   23c90:	8080030d 	sth	r2,12(r16)
   23c94:	8805883a 	mov	r2,r17
   23c98:	dfc11d17 	ldw	ra,1140(sp)
   23c9c:	dc811c17 	ldw	r18,1136(sp)
   23ca0:	dc411b17 	ldw	r17,1132(sp)
   23ca4:	dc011a17 	ldw	r16,1128(sp)
   23ca8:	dec11e04 	addi	sp,sp,1144
   23cac:	f800283a 	ret
   23cb0:	047fffc4 	movi	r17,-1
   23cb4:	003ff106 	br	23c7c <_gp+0xfffe2944>

00023cb8 <__svfscanf_r>:
   23cb8:	2880030b 	ldhu	r2,12(r5)
   23cbc:	deff4b04 	addi	sp,sp,-724
   23cc0:	df00b315 	stw	fp,716(sp)
   23cc4:	ddc0b215 	stw	r23,712(sp)
   23cc8:	dfc0b415 	stw	ra,720(sp)
   23ccc:	dd80b115 	stw	r22,708(sp)
   23cd0:	dd40b015 	stw	r21,704(sp)
   23cd4:	dd00af15 	stw	r20,700(sp)
   23cd8:	dcc0ae15 	stw	r19,696(sp)
   23cdc:	dc80ad15 	stw	r18,692(sp)
   23ce0:	dc40ac15 	stw	r17,688(sp)
   23ce4:	dc00ab15 	stw	r16,684(sp)
   23ce8:	10c8000c 	andi	r3,r2,8192
   23cec:	d9c09c15 	stw	r7,624(sp)
   23cf0:	2839883a 	mov	fp,r5
   23cf4:	202f883a 	mov	r23,r4
   23cf8:	1800061e 	bne	r3,zero,23d14 <__svfscanf_r+0x5c>
   23cfc:	29001917 	ldw	r4,100(r5)
   23d00:	00f7ffc4 	movi	r3,-8193
   23d04:	10880014 	ori	r2,r2,8192
   23d08:	20c6703a 	and	r3,r4,r3
   23d0c:	2880030d 	sth	r2,12(r5)
   23d10:	28c01915 	stw	r3,100(r5)
   23d14:	30800003 	ldbu	r2,0(r6)
   23d18:	0021883a 	mov	r16,zero
   23d1c:	05800134 	movhi	r22,4
   23d20:	d800a115 	stw	zero,644(sp)
   23d24:	d8009e15 	stw	zero,632(sp)
   23d28:	d800a015 	stw	zero,640(sp)
   23d2c:	d8809b15 	stw	r2,620(sp)
   23d30:	b5a4d004 	addi	r22,r22,-27840
   23d34:	8025883a 	mov	r18,r16
   23d38:	e027883a 	mov	r19,fp
   23d3c:	35000044 	addi	r20,r6,1
   23d40:	10001e26 	beq	r2,zero,23dbc <__svfscanf_r+0x104>
   23d44:	b4000017 	ldw	r16,0(r22)
   23d48:	8087883a 	add	r3,r16,r2
   23d4c:	18c00043 	ldbu	r3,1(r3)
   23d50:	18c0020c 	andi	r3,r3,8
   23d54:	18001b26 	beq	r3,zero,23dc4 <__svfscanf_r+0x10c>
   23d58:	98800117 	ldw	r2,4(r19)
   23d5c:	00800e0e 	bge	zero,r2,23d98 <__svfscanf_r+0xe0>
   23d60:	98c00017 	ldw	r3,0(r19)
   23d64:	b1000017 	ldw	r4,0(r22)
   23d68:	18800003 	ldbu	r2,0(r3)
   23d6c:	2085883a 	add	r2,r4,r2
   23d70:	10800043 	ldbu	r2,1(r2)
   23d74:	1080020c 	andi	r2,r2,8
   23d78:	10000b26 	beq	r2,zero,23da8 <__svfscanf_r+0xf0>
   23d7c:	98800117 	ldw	r2,4(r19)
   23d80:	18c00044 	addi	r3,r3,1
   23d84:	98c00015 	stw	r3,0(r19)
   23d88:	10bfffc4 	addi	r2,r2,-1
   23d8c:	98800115 	stw	r2,4(r19)
   23d90:	94800044 	addi	r18,r18,1
   23d94:	00bff216 	blt	zero,r2,23d60 <_gp+0xfffe2a28>
   23d98:	980b883a 	mov	r5,r19
   23d9c:	b809883a 	mov	r4,r23
   23da0:	002adac0 	call	2adac <__srefill_r>
   23da4:	103fee26 	beq	r2,zero,23d60 <_gp+0xfffe2a28>
   23da8:	a00d883a 	mov	r6,r20
   23dac:	30800003 	ldbu	r2,0(r6)
   23db0:	35000044 	addi	r20,r6,1
   23db4:	d8809b15 	stw	r2,620(sp)
   23db8:	103fe21e 	bne	r2,zero,23d44 <_gp+0xfffe2a0c>
   23dbc:	d880a017 	ldw	r2,640(sp)
   23dc0:	00009a06 	br	2402c <__svfscanf_r+0x374>
   23dc4:	00c00944 	movi	r3,37
   23dc8:	10c0891e 	bne	r2,r3,23ff0 <__svfscanf_r+0x338>
   23dcc:	0039883a 	mov	fp,zero
   23dd0:	35400043 	ldbu	r21,1(r6)
   23dd4:	0023883a 	mov	r17,zero
   23dd8:	01801e04 	movi	r6,120
   23ddc:	00c01b04 	movi	r3,108
   23de0:	e009883a 	mov	r4,fp
   23de4:	a1c00044 	addi	r7,r20,1
   23de8:	3540a236 	bltu	r6,r21,24074 <__svfscanf_r+0x3bc>
   23dec:	a80490ba 	slli	r2,r21,2
   23df0:	014000b4 	movhi	r5,2
   23df4:	294f8104 	addi	r5,r5,15876
   23df8:	1145883a 	add	r2,r2,r5
   23dfc:	10800017 	ldw	r2,0(r2)
   23e00:	1000683a 	jmp	r2
   23e04:	00024028 	cmpgeui	zero,zero,2304
   23e08:	00024074 	movhi	zero,2305
   23e0c:	00024074 	movhi	zero,2305
   23e10:	00024074 	movhi	zero,2305
   23e14:	00024074 	movhi	zero,2305
   23e18:	00024074 	movhi	zero,2305
   23e1c:	00024074 	movhi	zero,2305
   23e20:	00024074 	movhi	zero,2305
   23e24:	00024074 	movhi	zero,2305
   23e28:	00024074 	movhi	zero,2305
   23e2c:	00024074 	movhi	zero,2305
   23e30:	00024074 	movhi	zero,2305
   23e34:	00024074 	movhi	zero,2305
   23e38:	00024074 	movhi	zero,2305
   23e3c:	00024074 	movhi	zero,2305
   23e40:	00024074 	movhi	zero,2305
   23e44:	00024074 	movhi	zero,2305
   23e48:	00024074 	movhi	zero,2305
   23e4c:	00024074 	movhi	zero,2305
   23e50:	00024074 	movhi	zero,2305
   23e54:	00024074 	movhi	zero,2305
   23e58:	00024074 	movhi	zero,2305
   23e5c:	00024074 	movhi	zero,2305
   23e60:	00024074 	movhi	zero,2305
   23e64:	00024074 	movhi	zero,2305
   23e68:	00024074 	movhi	zero,2305
   23e6c:	00024074 	movhi	zero,2305
   23e70:	00024074 	movhi	zero,2305
   23e74:	00024074 	movhi	zero,2305
   23e78:	00024074 	movhi	zero,2305
   23e7c:	00024074 	movhi	zero,2305
   23e80:	00024074 	movhi	zero,2305
   23e84:	00024074 	movhi	zero,2305
   23e88:	00024074 	movhi	zero,2305
   23e8c:	00024074 	movhi	zero,2305
   23e90:	00024074 	movhi	zero,2305
   23e94:	00024074 	movhi	zero,2305
   23e98:	00023fe8 	cmpgeui	zero,zero,2303
   23e9c:	00024074 	movhi	zero,2305
   23ea0:	00024074 	movhi	zero,2305
   23ea4:	00024074 	movhi	zero,2305
   23ea8:	00024074 	movhi	zero,2305
   23eac:	0002405c 	xori	zero,zero,2305
   23eb0:	00024074 	movhi	zero,2305
   23eb4:	00024074 	movhi	zero,2305
   23eb8:	00024074 	movhi	zero,2305
   23ebc:	00024074 	movhi	zero,2305
   23ec0:	00024074 	movhi	zero,2305
   23ec4:	000241bc 	xorhi	zero,zero,2310
   23ec8:	000241bc 	xorhi	zero,zero,2310
   23ecc:	000241bc 	xorhi	zero,zero,2310
   23ed0:	000241bc 	xorhi	zero,zero,2310
   23ed4:	000241bc 	xorhi	zero,zero,2310
   23ed8:	000241bc 	xorhi	zero,zero,2310
   23edc:	000241bc 	xorhi	zero,zero,2310
   23ee0:	000241bc 	xorhi	zero,zero,2310
   23ee4:	000241bc 	xorhi	zero,zero,2310
   23ee8:	000241bc 	xorhi	zero,zero,2310
   23eec:	00024074 	movhi	zero,2305
   23ef0:	00024074 	movhi	zero,2305
   23ef4:	00024074 	movhi	zero,2305
   23ef8:	00024074 	movhi	zero,2305
   23efc:	00024074 	movhi	zero,2305
   23f00:	00024074 	movhi	zero,2305
   23f04:	00024074 	movhi	zero,2305
   23f08:	00024074 	movhi	zero,2305
   23f0c:	00024074 	movhi	zero,2305
   23f10:	00024074 	movhi	zero,2305
   23f14:	0002418c 	andi	zero,zero,2310
   23f18:	00024268 	cmpgeui	zero,zero,2313
   23f1c:	00024074 	movhi	zero,2305
   23f20:	00024268 	cmpgeui	zero,zero,2313
   23f24:	00024074 	movhi	zero,2305
   23f28:	00024074 	movhi	zero,2305
   23f2c:	00024074 	movhi	zero,2305
   23f30:	00024074 	movhi	zero,2305
   23f34:	00024254 	movui	zero,2313
   23f38:	00024074 	movhi	zero,2305
   23f3c:	00024074 	movhi	zero,2305
   23f40:	00024224 	muli	zero,zero,2312
   23f44:	00024074 	movhi	zero,2305
   23f48:	00024074 	movhi	zero,2305
   23f4c:	00024074 	movhi	zero,2305
   23f50:	00024074 	movhi	zero,2305
   23f54:	00024074 	movhi	zero,2305
   23f58:	00024074 	movhi	zero,2305
   23f5c:	00024074 	movhi	zero,2305
   23f60:	00024074 	movhi	zero,2305
   23f64:	000241f4 	movhi	zero,2311
   23f68:	00024074 	movhi	zero,2305
   23f6c:	00024074 	movhi	zero,2305
   23f70:	000243b0 	cmpltui	zero,zero,2318
   23f74:	00024074 	movhi	zero,2305
   23f78:	00024074 	movhi	zero,2305
   23f7c:	00024074 	movhi	zero,2305
   23f80:	00024074 	movhi	zero,2305
   23f84:	00024074 	movhi	zero,2305
   23f88:	00024074 	movhi	zero,2305
   23f8c:	00024074 	movhi	zero,2305
   23f90:	00024330 	cmpltui	zero,zero,2316
   23f94:	00024304 	movi	zero,2316
   23f98:	00024268 	cmpgeui	zero,zero,2313
   23f9c:	00024268 	cmpgeui	zero,zero,2313
   23fa0:	00024268 	cmpgeui	zero,zero,2313
   23fa4:	000242f0 	cmpltui	zero,zero,2315
   23fa8:	00024440 	call	2444 <__alt_mem_onchip_memory2_0-0x1dbbc>
   23fac:	00024074 	movhi	zero,2305
   23fb0:	00024074 	movhi	zero,2305
   23fb4:	000242dc 	xori	zero,zero,2315
   23fb8:	00024074 	movhi	zero,2305
   23fbc:	000242ac 	andhi	zero,zero,2314
   23fc0:	00024280 	call	2428 <__alt_mem_onchip_memory2_0-0x1dbd8>
   23fc4:	0002415c 	xori	zero,zero,2309
   23fc8:	00024074 	movhi	zero,2305
   23fcc:	00024074 	movhi	zero,2305
   23fd0:	00024144 	movi	zero,2309
   23fd4:	00024074 	movhi	zero,2305
   23fd8:	000240c8 	cmpgei	zero,zero,2307
   23fdc:	00024074 	movhi	zero,2305
   23fe0:	00024074 	movhi	zero,2305
   23fe4:	000241f4 	movhi	zero,2311
   23fe8:	d9c09d15 	stw	r7,628(sp)
   23fec:	3829883a 	mov	r20,r7
   23ff0:	98800117 	ldw	r2,4(r19)
   23ff4:	0081c60e 	bge	zero,r2,24710 <__svfscanf_r+0xa58>
   23ff8:	98800017 	ldw	r2,0(r19)
   23ffc:	a0ffffc3 	ldbu	r3,-1(r20)
   24000:	11000003 	ldbu	r4,0(r2)
   24004:	20ff6d1e 	bne	r4,r3,23dbc <_gp+0xfffe2a84>
   24008:	98c00117 	ldw	r3,4(r19)
   2400c:	10800044 	addi	r2,r2,1
   24010:	98800015 	stw	r2,0(r19)
   24014:	18bfffc4 	addi	r2,r3,-1
   24018:	98800115 	stw	r2,4(r19)
   2401c:	94800044 	addi	r18,r18,1
   24020:	a00d883a 	mov	r6,r20
   24024:	003f6106 	br	23dac <_gp+0xfffe2a74>
   24028:	00bfffc4 	movi	r2,-1
   2402c:	dfc0b417 	ldw	ra,720(sp)
   24030:	df00b317 	ldw	fp,716(sp)
   24034:	ddc0b217 	ldw	r23,712(sp)
   24038:	dd80b117 	ldw	r22,708(sp)
   2403c:	dd40b017 	ldw	r21,704(sp)
   24040:	dd00af17 	ldw	r20,700(sp)
   24044:	dcc0ae17 	ldw	r19,696(sp)
   24048:	dc80ad17 	ldw	r18,692(sp)
   2404c:	dc40ac17 	ldw	r17,688(sp)
   24050:	dc00ab17 	ldw	r16,684(sp)
   24054:	dec0b504 	addi	sp,sp,724
   24058:	f800283a 	ret
   2405c:	a1400043 	ldbu	r5,1(r20)
   24060:	3829883a 	mov	r20,r7
   24064:	8c400414 	ori	r17,r17,16
   24068:	2d403fcc 	andi	r21,r5,255
   2406c:	a1c00044 	addi	r7,r20,1
   24070:	357f5e2e 	bgeu	r6,r21,23dec <_gp+0xfffe2ab4>
   24074:	856b883a 	add	r21,r16,r21
   24078:	a8800043 	ldbu	r2,1(r21)
   2407c:	d9c09d15 	stw	r7,628(sp)
   24080:	00c00044 	movi	r3,1
   24084:	108000cc 	andi	r2,r2,3
   24088:	2039883a 	mov	fp,r4
   2408c:	10c1a526 	beq	r2,r3,24724 <__svfscanf_r+0xa6c>
   24090:	98800117 	ldw	r2,4(r19)
   24094:	00804216 	blt	zero,r2,241a0 <__svfscanf_r+0x4e8>
   24098:	980b883a 	mov	r5,r19
   2409c:	b809883a 	mov	r4,r23
   240a0:	002adac0 	call	2adac <__srefill_r>
   240a4:	10015e1e 	bne	r2,zero,24620 <__svfscanf_r+0x968>
   240a8:	010000f4 	movhi	r4,3
   240ac:	2132d704 	addi	r4,r4,-13476
   240b0:	01400284 	movi	r5,10
   240b4:	b4000017 	ldw	r16,0(r22)
   240b8:	d900a115 	stw	r4,644(sp)
   240bc:	d9409e15 	stw	r5,632(sp)
   240c0:	050000c4 	movi	r20,3
   240c4:	00000a06 	br	240f0 <__svfscanf_r+0x438>
   240c8:	98800117 	ldw	r2,4(r19)
   240cc:	d9c09d15 	stw	r7,628(sp)
   240d0:	2039883a 	mov	fp,r4
   240d4:	0081e20e 	bge	zero,r2,24860 <__svfscanf_r+0xba8>
   240d8:	00c000f4 	movhi	r3,3
   240dc:	18f43504 	addi	r3,r3,-12076
   240e0:	01000284 	movi	r4,10
   240e4:	d8c0a115 	stw	r3,644(sp)
   240e8:	d9009e15 	stw	r4,632(sp)
   240ec:	050000c4 	movi	r20,3
   240f0:	98c00017 	ldw	r3,0(r19)
   240f4:	00000206 	br	24100 <__svfscanf_r+0x448>
   240f8:	18c00044 	addi	r3,r3,1
   240fc:	98c00015 	stw	r3,0(r19)
   24100:	19000003 	ldbu	r4,0(r3)
   24104:	20803fcc 	andi	r2,r4,255
   24108:	8085883a 	add	r2,r16,r2
   2410c:	10800043 	ldbu	r2,1(r2)
   24110:	1140020c 	andi	r5,r2,8
   24114:	28020126 	beq	r5,zero,2491c <__svfscanf_r+0xc64>
   24118:	98800117 	ldw	r2,4(r19)
   2411c:	94800044 	addi	r18,r18,1
   24120:	10bfffc4 	addi	r2,r2,-1
   24124:	98800115 	stw	r2,4(r19)
   24128:	00bff316 	blt	zero,r2,240f8 <_gp+0xfffe2dc0>
   2412c:	980b883a 	mov	r5,r19
   24130:	b809883a 	mov	r4,r23
   24134:	002adac0 	call	2adac <__srefill_r>
   24138:	1001391e 	bne	r2,zero,24620 <__svfscanf_r+0x968>
   2413c:	b4000017 	ldw	r16,0(r22)
   24140:	003feb06 	br	240f0 <_gp+0xfffe2db8>
   24144:	98800117 	ldw	r2,4(r19)
   24148:	d9c09d15 	stw	r7,628(sp)
   2414c:	2039883a 	mov	fp,r4
   24150:	0081aa0e 	bge	zero,r2,247fc <__svfscanf_r+0xb44>
   24154:	05000084 	movi	r20,2
   24158:	003fe506 	br	240f0 <_gp+0xfffe2db8>
   2415c:	98800117 	ldw	r2,4(r19)
   24160:	d9c09d15 	stw	r7,628(sp)
   24164:	2039883a 	mov	fp,r4
   24168:	8c408814 	ori	r17,r17,544
   2416c:	0081df0e 	bge	zero,r2,248ec <__svfscanf_r+0xc34>
   24170:	00c000f4 	movhi	r3,3
   24174:	18f43504 	addi	r3,r3,-12076
   24178:	01000404 	movi	r4,16
   2417c:	d8c0a115 	stw	r3,644(sp)
   24180:	d9009e15 	stw	r4,632(sp)
   24184:	050000c4 	movi	r20,3
   24188:	003fd906 	br	240f0 <_gp+0xfffe2db8>
   2418c:	98800117 	ldw	r2,4(r19)
   24190:	d9c09d15 	stw	r7,628(sp)
   24194:	2039883a 	mov	fp,r4
   24198:	8c400054 	ori	r17,r17,1
   2419c:	0081850e 	bge	zero,r2,247b4 <__svfscanf_r+0xafc>
   241a0:	00c000f4 	movhi	r3,3
   241a4:	18f2d704 	addi	r3,r3,-13476
   241a8:	01000284 	movi	r4,10
   241ac:	d8c0a115 	stw	r3,644(sp)
   241b0:	d9009e15 	stw	r4,632(sp)
   241b4:	050000c4 	movi	r20,3
   241b8:	003fcd06 	br	240f0 <_gp+0xfffe2db8>
   241bc:	01400284 	movi	r5,10
   241c0:	d8c0a615 	stw	r3,664(sp)
   241c4:	d980a915 	stw	r6,676(sp)
   241c8:	d9c0aa15 	stw	r7,680(sp)
   241cc:	0034cf00 	call	34cf0 <__mulsi3>
   241d0:	a1400043 	ldbu	r5,1(r20)
   241d4:	d9c0aa17 	ldw	r7,680(sp)
   241d8:	1545883a 	add	r2,r2,r21
   241dc:	113ff404 	addi	r4,r2,-48
   241e0:	3829883a 	mov	r20,r7
   241e4:	2d403fcc 	andi	r21,r5,255
   241e8:	d8c0a617 	ldw	r3,664(sp)
   241ec:	d980a917 	ldw	r6,676(sp)
   241f0:	003efc06 	br	23de4 <_gp+0xfffe2aac>
   241f4:	98800117 	ldw	r2,4(r19)
   241f8:	d9c09d15 	stw	r7,628(sp)
   241fc:	2039883a 	mov	fp,r4
   24200:	8c408014 	ori	r17,r17,512
   24204:	0081710e 	bge	zero,r2,247cc <__svfscanf_r+0xb14>
   24208:	014000f4 	movhi	r5,3
   2420c:	29743504 	addi	r5,r5,-12076
   24210:	00800404 	movi	r2,16
   24214:	d940a115 	stw	r5,644(sp)
   24218:	d8809e15 	stw	r2,632(sp)
   2421c:	050000c4 	movi	r20,3
   24220:	003fb306 	br	240f0 <_gp+0xfffe2db8>
   24224:	98800117 	ldw	r2,4(r19)
   24228:	d9c09d15 	stw	r7,628(sp)
   2422c:	2039883a 	mov	fp,r4
   24230:	8c400054 	ori	r17,r17,1
   24234:	0081840e 	bge	zero,r2,24848 <__svfscanf_r+0xb90>
   24238:	014000f4 	movhi	r5,3
   2423c:	29743504 	addi	r5,r5,-12076
   24240:	00800204 	movi	r2,8
   24244:	d940a115 	stw	r5,644(sp)
   24248:	d8809e15 	stw	r2,632(sp)
   2424c:	050000c4 	movi	r20,3
   24250:	003fa706 	br	240f0 <_gp+0xfffe2db8>
   24254:	a1400043 	ldbu	r5,1(r20)
   24258:	8c400094 	ori	r17,r17,2
   2425c:	3829883a 	mov	r20,r7
   24260:	2d403fcc 	andi	r21,r5,255
   24264:	003edf06 	br	23de4 <_gp+0xfffe2aac>
   24268:	98800117 	ldw	r2,4(r19)
   2426c:	d9c09d15 	stw	r7,628(sp)
   24270:	2039883a 	mov	fp,r4
   24274:	00816d0e 	bge	zero,r2,2482c <__svfscanf_r+0xb74>
   24278:	05000104 	movi	r20,4
   2427c:	003f9c06 	br	240f0 <_gp+0xfffe2db8>
   24280:	98800117 	ldw	r2,4(r19)
   24284:	d9c09d15 	stw	r7,628(sp)
   24288:	2039883a 	mov	fp,r4
   2428c:	0081800e 	bge	zero,r2,24890 <__svfscanf_r+0xbd8>
   24290:	010000f4 	movhi	r4,3
   24294:	21343504 	addi	r4,r4,-12076
   24298:	01400204 	movi	r5,8
   2429c:	d900a115 	stw	r4,644(sp)
   242a0:	d9409e15 	stw	r5,632(sp)
   242a4:	050000c4 	movi	r20,3
   242a8:	003f9106 	br	240f0 <_gp+0xfffe2db8>
   242ac:	d9c09d15 	stw	r7,628(sp)
   242b0:	8880040c 	andi	r2,r17,16
   242b4:	1000a01e 	bne	r2,zero,24538 <__svfscanf_r+0x880>
   242b8:	8880010c 	andi	r2,r17,4
   242bc:	10012826 	beq	r2,zero,24760 <__svfscanf_r+0xaa8>
   242c0:	d9009c17 	ldw	r4,624(sp)
   242c4:	3829883a 	mov	r20,r7
   242c8:	20800017 	ldw	r2,0(r4)
   242cc:	21000104 	addi	r4,r4,4
   242d0:	d9009c15 	stw	r4,624(sp)
   242d4:	1480000d 	sth	r18,0(r2)
   242d8:	003eb306 	br	23da8 <_gp+0xfffe2a70>
   242dc:	a5400043 	ldbu	r21,1(r20)
   242e0:	a8c11a26 	beq	r21,r3,2474c <__svfscanf_r+0xa94>
   242e4:	8c400054 	ori	r17,r17,1
   242e8:	3829883a 	mov	r20,r7
   242ec:	003ebd06 	br	23de4 <_gp+0xfffe2aac>
   242f0:	a1400043 	ldbu	r5,1(r20)
   242f4:	8c400114 	ori	r17,r17,4
   242f8:	3829883a 	mov	r20,r7
   242fc:	2d403fcc 	andi	r21,r5,255
   24300:	003eb806 	br	23de4 <_gp+0xfffe2aac>
   24304:	98800117 	ldw	r2,4(r19)
   24308:	d9c09d15 	stw	r7,628(sp)
   2430c:	2039883a 	mov	fp,r4
   24310:	00bf610e 	bge	zero,r2,24098 <_gp+0xfffe2d60>
   24314:	008000f4 	movhi	r2,3
   24318:	10b2d704 	addi	r2,r2,-13476
   2431c:	00c00284 	movi	r3,10
   24320:	d880a115 	stw	r2,644(sp)
   24324:	d8c09e15 	stw	r3,632(sp)
   24328:	050000c4 	movi	r20,3
   2432c:	003f7006 	br	240f0 <_gp+0xfffe2db8>
   24330:	98800117 	ldw	r2,4(r19)
   24334:	d9c09d15 	stw	r7,628(sp)
   24338:	2039883a 	mov	fp,r4
   2433c:	0080c60e 	bge	zero,r2,24658 <__svfscanf_r+0x9a0>
   24340:	e000011e 	bne	fp,zero,24348 <__svfscanf_r+0x690>
   24344:	07000044 	movi	fp,1
   24348:	8880004c 	andi	r2,r17,1
   2434c:	1000461e 	bne	r2,zero,24468 <__svfscanf_r+0x7b0>
   24350:	8c40040c 	andi	r17,r17,16
   24354:	8800dc26 	beq	r17,zero,246c8 <__svfscanf_r+0xa10>
   24358:	0021883a 	mov	r16,zero
   2435c:	00000806 	br	24380 <__svfscanf_r+0x6c8>
   24360:	1887883a 	add	r3,r3,r2
   24364:	980b883a 	mov	r5,r19
   24368:	b809883a 	mov	r4,r23
   2436c:	98c00015 	stw	r3,0(r19)
   24370:	80a1883a 	add	r16,r16,r2
   24374:	e0b9c83a 	sub	fp,fp,r2
   24378:	002adac0 	call	2adac <__srefill_r>
   2437c:	1000cc1e 	bne	r2,zero,246b0 <__svfscanf_r+0x9f8>
   24380:	98800117 	ldw	r2,4(r19)
   24384:	98c00017 	ldw	r3,0(r19)
   24388:	173ff516 	blt	r2,fp,24360 <_gp+0xfffe3028>
   2438c:	1705c83a 	sub	r2,r2,fp
   24390:	1f15883a 	add	r10,r3,fp
   24394:	8721883a 	add	r16,r16,fp
   24398:	98800115 	stw	r2,4(r19)
   2439c:	9a800015 	stw	r10,0(r19)
   243a0:	dd009d17 	ldw	r20,628(sp)
   243a4:	9425883a 	add	r18,r18,r16
   243a8:	a00d883a 	mov	r6,r20
   243ac:	003e7f06 	br	23dac <_gp+0xfffe2a74>
   243b0:	2039883a 	mov	fp,r4
   243b4:	380b883a 	mov	r5,r7
   243b8:	d9005884 	addi	r4,sp,354
   243bc:	d9c09d15 	stw	r7,628(sp)
   243c0:	002b0480 	call	2b048 <__sccl>
   243c4:	1029883a 	mov	r20,r2
   243c8:	98800117 	ldw	r2,4(r19)
   243cc:	0081120e 	bge	zero,r2,24818 <__svfscanf_r+0xb60>
   243d0:	99000017 	ldw	r4,0(r19)
   243d4:	20800003 	ldbu	r2,0(r4)
   243d8:	e0005a26 	beq	fp,zero,24544 <__svfscanf_r+0x88c>
   243dc:	8c40040c 	andi	r17,r17,16
   243e0:	88005b26 	beq	r17,zero,24550 <__svfscanf_r+0x898>
   243e4:	e023883a 	mov	r17,fp
   243e8:	0021883a 	mov	r16,zero
   243ec:	00000106 	br	243f4 <__svfscanf_r+0x73c>
   243f0:	20800003 	ldbu	r2,0(r4)
   243f4:	10803fcc 	andi	r2,r2,255
   243f8:	d8c05884 	addi	r3,sp,354
   243fc:	1885883a 	add	r2,r3,r2
   24400:	10800007 	ldb	r2,0(r2)
   24404:	1000ae26 	beq	r2,zero,246c0 <__svfscanf_r+0xa08>
   24408:	98800117 	ldw	r2,4(r19)
   2440c:	21000044 	addi	r4,r4,1
   24410:	84000044 	addi	r16,r16,1
   24414:	10bfffc4 	addi	r2,r2,-1
   24418:	98800115 	stw	r2,4(r19)
   2441c:	99000015 	stw	r4,0(r19)
   24420:	8700a126 	beq	r16,fp,246a8 <__svfscanf_r+0x9f0>
   24424:	00bff216 	blt	zero,r2,243f0 <_gp+0xfffe30b8>
   24428:	980b883a 	mov	r5,r19
   2442c:	b809883a 	mov	r4,r23
   24430:	002adac0 	call	2adac <__srefill_r>
   24434:	10009b1e 	bne	r2,zero,246a4 <__svfscanf_r+0x9ec>
   24438:	99000017 	ldw	r4,0(r19)
   2443c:	003fec06 	br	243f0 <_gp+0xfffe30b8>
   24440:	98800117 	ldw	r2,4(r19)
   24444:	d9c09d15 	stw	r7,628(sp)
   24448:	2039883a 	mov	fp,r4
   2444c:	00811c0e 	bge	zero,r2,248c0 <__svfscanf_r+0xc08>
   24450:	014000f4 	movhi	r5,3
   24454:	2972d704 	addi	r5,r5,-13476
   24458:	d940a115 	stw	r5,644(sp)
   2445c:	d8009e15 	stw	zero,632(sp)
   24460:	050000c4 	movi	r20,3
   24464:	003f2206 	br	240f0 <_gp+0xfffe2db8>
   24468:	dd409904 	addi	r21,sp,612
   2446c:	8c40040c 	andi	r17,r17,16
   24470:	01800204 	movi	r6,8
   24474:	000b883a 	mov	r5,zero
   24478:	a809883a 	mov	r4,r21
   2447c:	dc409f15 	stw	r17,636(sp)
   24480:	00294e40 	call	294e4 <memset>
   24484:	dc409f17 	ldw	r17,636(sp)
   24488:	88006e26 	beq	r17,zero,24644 <__svfscanf_r+0x98c>
   2448c:	0029883a 	mov	r20,zero
   24490:	0023883a 	mov	r17,zero
   24494:	002851c0 	call	2851c <__locale_mb_cur_max>
   24498:	14406126 	beq	r2,r17,24620 <__svfscanf_r+0x968>
   2449c:	98800017 	ldw	r2,0(r19)
   244a0:	98c00117 	ldw	r3,4(r19)
   244a4:	d9000104 	addi	r4,sp,4
   244a8:	12000003 	ldbu	r8,0(r2)
   244ac:	18ffffc4 	addi	r3,r3,-1
   244b0:	10800044 	addi	r2,r2,1
   244b4:	98c00115 	stw	r3,4(r19)
   244b8:	98800015 	stw	r2,0(r19)
   244bc:	8c000044 	addi	r16,r17,1
   244c0:	dd400015 	stw	r21,0(sp)
   244c4:	2463883a 	add	r17,r4,r17
   244c8:	200d883a 	mov	r6,r4
   244cc:	a00b883a 	mov	r5,r20
   244d0:	800f883a 	mov	r7,r16
   244d4:	b809883a 	mov	r4,r23
   244d8:	8a000005 	stb	r8,0(r17)
   244dc:	0028f380 	call	28f38 <_mbrtowc_r>
   244e0:	017fffc4 	movi	r5,-1
   244e4:	11404e26 	beq	r2,r5,24620 <__svfscanf_r+0x968>
   244e8:	1000601e 	bne	r2,zero,2466c <__svfscanf_r+0x9b4>
   244ec:	d8c09f17 	ldw	r3,636(sp)
   244f0:	1800641e 	bne	r3,zero,24684 <__svfscanf_r+0x9cc>
   244f4:	a0000015 	stw	zero,0(r20)
   244f8:	9425883a 	add	r18,r18,r16
   244fc:	e179883a 	add	fp,fp,r5
   24500:	a5000104 	addi	r20,r20,4
   24504:	98800117 	ldw	r2,4(r19)
   24508:	0023883a 	mov	r17,zero
   2450c:	00804b16 	blt	zero,r2,2463c <__svfscanf_r+0x984>
   24510:	980b883a 	mov	r5,r19
   24514:	b809883a 	mov	r4,r23
   24518:	002adac0 	call	2adac <__srefill_r>
   2451c:	10004726 	beq	r2,zero,2463c <__svfscanf_r+0x984>
   24520:	88003f1e 	bne	r17,zero,24620 <__svfscanf_r+0x968>
   24524:	d8c09f17 	ldw	r3,636(sp)
   24528:	1800031e 	bne	r3,zero,24538 <__svfscanf_r+0x880>
   2452c:	d900a017 	ldw	r4,640(sp)
   24530:	21000044 	addi	r4,r4,1
   24534:	d900a015 	stw	r4,640(sp)
   24538:	dd009d17 	ldw	r20,628(sp)
   2453c:	a00d883a 	mov	r6,r20
   24540:	003e1a06 	br	23dac <_gp+0xfffe2a74>
   24544:	8c40040c 	andi	r17,r17,16
   24548:	073fffc4 	movi	fp,-1
   2454c:	883fa51e 	bne	r17,zero,243e4 <_gp+0xfffe30ac>
   24550:	d9409c17 	ldw	r5,624(sp)
   24554:	e2bfffc4 	addi	r10,fp,-1
   24558:	2c000017 	ldw	r16,0(r5)
   2455c:	2c400104 	addi	r17,r5,4
   24560:	8007883a 	mov	r3,r16
   24564:	82ab883a 	add	r21,r16,r10
   24568:	00000306 	br	24578 <__svfscanf_r+0x8c0>
   2456c:	99000017 	ldw	r4,0(r19)
   24570:	e007883a 	mov	r3,fp
   24574:	20800003 	ldbu	r2,0(r4)
   24578:	10803fcc 	andi	r2,r2,255
   2457c:	d9405884 	addi	r5,sp,354
   24580:	2885883a 	add	r2,r5,r2
   24584:	10800007 	ldb	r2,0(r2)
   24588:	10004b26 	beq	r2,zero,246b8 <__svfscanf_r+0xa00>
   2458c:	98800117 	ldw	r2,4(r19)
   24590:	21400044 	addi	r5,r4,1
   24594:	99400015 	stw	r5,0(r19)
   24598:	10bfffc4 	addi	r2,r2,-1
   2459c:	98800115 	stw	r2,4(r19)
   245a0:	20800003 	ldbu	r2,0(r4)
   245a4:	1f000044 	addi	fp,r3,1
   245a8:	18800005 	stb	r2,0(r3)
   245ac:	1d400726 	beq	r3,r21,245cc <__svfscanf_r+0x914>
   245b0:	98800117 	ldw	r2,4(r19)
   245b4:	00bfed16 	blt	zero,r2,2456c <_gp+0xfffe3234>
   245b8:	980b883a 	mov	r5,r19
   245bc:	b809883a 	mov	r4,r23
   245c0:	002adac0 	call	2adac <__srefill_r>
   245c4:	103fe926 	beq	r2,zero,2456c <_gp+0xfffe3234>
   245c8:	87001526 	beq	r16,fp,24620 <__svfscanf_r+0x968>
   245cc:	e421c83a 	sub	r16,fp,r16
   245d0:	803dfa26 	beq	r16,zero,23dbc <_gp+0xfffe2a84>
   245d4:	d880a017 	ldw	r2,640(sp)
   245d8:	e0000005 	stb	zero,0(fp)
   245dc:	dc409c15 	stw	r17,624(sp)
   245e0:	10800044 	addi	r2,r2,1
   245e4:	d880a015 	stw	r2,640(sp)
   245e8:	9425883a 	add	r18,r18,r16
   245ec:	a00d883a 	mov	r6,r20
   245f0:	003dee06 	br	23dac <_gp+0xfffe2a74>
   245f4:	013fff84 	movi	r4,-2
   245f8:	1103ed1e 	bne	r2,r4,255b0 <__svfscanf_r+0x18f8>
   245fc:	8821883a 	mov	r16,r17
   24600:	98800117 	ldw	r2,4(r19)
   24604:	00834116 	blt	zero,r2,2530c <__svfscanf_r+0x1654>
   24608:	980b883a 	mov	r5,r19
   2460c:	b809883a 	mov	r4,r23
   24610:	002adac0 	call	2adac <__srefill_r>
   24614:	10033d26 	beq	r2,zero,2530c <__svfscanf_r+0x1654>
   24618:	dc409f17 	ldw	r17,636(sp)
   2461c:	80034426 	beq	r16,zero,25330 <__svfscanf_r+0x1678>
   24620:	d900a017 	ldw	r4,640(sp)
   24624:	203e8026 	beq	r4,zero,24028 <_gp+0xfffe2cf0>
   24628:	9880030b 	ldhu	r2,12(r19)
   2462c:	1080100c 	andi	r2,r2,64
   24630:	103e7d1e 	bne	r2,zero,24028 <_gp+0xfffe2cf0>
   24634:	2005883a 	mov	r2,r4
   24638:	003e7c06 	br	2402c <_gp+0xfffe2cf4>
   2463c:	e03f951e 	bne	fp,zero,24494 <_gp+0xfffe315c>
   24640:	003fb806 	br	24524 <_gp+0xfffe31ec>
   24644:	d8809c17 	ldw	r2,624(sp)
   24648:	15000017 	ldw	r20,0(r2)
   2464c:	10800104 	addi	r2,r2,4
   24650:	d8809c15 	stw	r2,624(sp)
   24654:	003f8e06 	br	24490 <_gp+0xfffe3158>
   24658:	980b883a 	mov	r5,r19
   2465c:	b809883a 	mov	r4,r23
   24660:	002adac0 	call	2adac <__srefill_r>
   24664:	103f3626 	beq	r2,zero,24340 <_gp+0xfffe3008>
   24668:	003fed06 	br	24620 <_gp+0xfffe32e8>
   2466c:	013fff84 	movi	r4,-2
   24670:	1100071e 	bne	r2,r4,24690 <__svfscanf_r+0x9d8>
   24674:	98800117 	ldw	r2,4(r19)
   24678:	8023883a 	mov	r17,r16
   2467c:	00bf8516 	blt	zero,r2,24494 <_gp+0xfffe315c>
   24680:	003fa306 	br	24510 <_gp+0xfffe31d8>
   24684:	9425883a 	add	r18,r18,r16
   24688:	e73fffc4 	addi	fp,fp,-1
   2468c:	003f9d06 	br	24504 <_gp+0xfffe31cc>
   24690:	d8c09f17 	ldw	r3,636(sp)
   24694:	9425883a 	add	r18,r18,r16
   24698:	e73fffc4 	addi	fp,fp,-1
   2469c:	183f9826 	beq	r3,zero,24500 <_gp+0xfffe31c8>
   246a0:	003f9806 	br	24504 <_gp+0xfffe31cc>
   246a4:	8023883a 	mov	r17,r16
   246a8:	8821883a 	mov	r16,r17
   246ac:	003fce06 	br	245e8 <_gp+0xfffe32b0>
   246b0:	803f3b1e 	bne	r16,zero,243a0 <_gp+0xfffe3068>
   246b4:	003fda06 	br	24620 <_gp+0xfffe32e8>
   246b8:	1839883a 	mov	fp,r3
   246bc:	003fc306 	br	245cc <_gp+0xfffe3294>
   246c0:	803fc91e 	bne	r16,zero,245e8 <_gp+0xfffe32b0>
   246c4:	003dbd06 	br	23dbc <_gp+0xfffe2a84>
   246c8:	d8809c17 	ldw	r2,624(sp)
   246cc:	dcc00015 	stw	r19,0(sp)
   246d0:	b809883a 	mov	r4,r23
   246d4:	11400017 	ldw	r5,0(r2)
   246d8:	e00f883a 	mov	r7,fp
   246dc:	01800044 	movi	r6,1
   246e0:	00277700 	call	27770 <_fread_r>
   246e4:	d9009c17 	ldw	r4,624(sp)
   246e8:	20c00104 	addi	r3,r4,4
   246ec:	103fcc26 	beq	r2,zero,24620 <_gp+0xfffe32e8>
   246f0:	d940a017 	ldw	r5,640(sp)
   246f4:	dd009d17 	ldw	r20,628(sp)
   246f8:	90a5883a 	add	r18,r18,r2
   246fc:	29400044 	addi	r5,r5,1
   24700:	d940a015 	stw	r5,640(sp)
   24704:	d8c09c15 	stw	r3,624(sp)
   24708:	a00d883a 	mov	r6,r20
   2470c:	003da706 	br	23dac <_gp+0xfffe2a74>
   24710:	980b883a 	mov	r5,r19
   24714:	b809883a 	mov	r4,r23
   24718:	002adac0 	call	2adac <__srefill_r>
   2471c:	103e3626 	beq	r2,zero,23ff8 <_gp+0xfffe2cc0>
   24720:	003fbf06 	br	24620 <_gp+0xfffe32e8>
   24724:	98800117 	ldw	r2,4(r19)
   24728:	88e2b03a 	or	r17,r17,r3
   2472c:	0080210e 	bge	zero,r2,247b4 <__svfscanf_r+0xafc>
   24730:	014000f4 	movhi	r5,3
   24734:	2972d704 	addi	r5,r5,-13476
   24738:	00800284 	movi	r2,10
   2473c:	d940a115 	stw	r5,644(sp)
   24740:	d8809e15 	stw	r2,632(sp)
   24744:	050000c4 	movi	r20,3
   24748:	003e6906 	br	240f0 <_gp+0xfffe2db8>
   2474c:	a1400083 	ldbu	r5,2(r20)
   24750:	8c400094 	ori	r17,r17,2
   24754:	a5000084 	addi	r20,r20,2
   24758:	2d403fcc 	andi	r21,r5,255
   2475c:	003da106 	br	23de4 <_gp+0xfffe2aac>
   24760:	8880004c 	andi	r2,r17,1
   24764:	10000c1e 	bne	r2,zero,24798 <__svfscanf_r+0xae0>
   24768:	8c40008c 	andi	r17,r17,2
   2476c:	88000a26 	beq	r17,zero,24798 <__svfscanf_r+0xae0>
   24770:	d8c09c17 	ldw	r3,624(sp)
   24774:	d9009c17 	ldw	r4,624(sp)
   24778:	dd009d17 	ldw	r20,628(sp)
   2477c:	18800017 	ldw	r2,0(r3)
   24780:	9007d7fa 	srai	r3,r18,31
   24784:	21000104 	addi	r4,r4,4
   24788:	14800015 	stw	r18,0(r2)
   2478c:	10c00115 	stw	r3,4(r2)
   24790:	d9009c15 	stw	r4,624(sp)
   24794:	003d8406 	br	23da8 <_gp+0xfffe2a70>
   24798:	d9409c17 	ldw	r5,624(sp)
   2479c:	dd009d17 	ldw	r20,628(sp)
   247a0:	28800017 	ldw	r2,0(r5)
   247a4:	29400104 	addi	r5,r5,4
   247a8:	d9409c15 	stw	r5,624(sp)
   247ac:	14800015 	stw	r18,0(r2)
   247b0:	003d7d06 	br	23da8 <_gp+0xfffe2a70>
   247b4:	980b883a 	mov	r5,r19
   247b8:	b809883a 	mov	r4,r23
   247bc:	002adac0 	call	2adac <__srefill_r>
   247c0:	103f971e 	bne	r2,zero,24620 <_gp+0xfffe32e8>
   247c4:	b4000017 	ldw	r16,0(r22)
   247c8:	003ed206 	br	24314 <_gp+0xfffe2fdc>
   247cc:	980b883a 	mov	r5,r19
   247d0:	b809883a 	mov	r4,r23
   247d4:	002adac0 	call	2adac <__srefill_r>
   247d8:	103f911e 	bne	r2,zero,24620 <_gp+0xfffe32e8>
   247dc:	010000f4 	movhi	r4,3
   247e0:	21343504 	addi	r4,r4,-12076
   247e4:	01400404 	movi	r5,16
   247e8:	b4000017 	ldw	r16,0(r22)
   247ec:	d900a115 	stw	r4,644(sp)
   247f0:	d9409e15 	stw	r5,632(sp)
   247f4:	050000c4 	movi	r20,3
   247f8:	003e3d06 	br	240f0 <_gp+0xfffe2db8>
   247fc:	980b883a 	mov	r5,r19
   24800:	b809883a 	mov	r4,r23
   24804:	002adac0 	call	2adac <__srefill_r>
   24808:	103f851e 	bne	r2,zero,24620 <_gp+0xfffe32e8>
   2480c:	b4000017 	ldw	r16,0(r22)
   24810:	05000084 	movi	r20,2
   24814:	003e3606 	br	240f0 <_gp+0xfffe2db8>
   24818:	980b883a 	mov	r5,r19
   2481c:	b809883a 	mov	r4,r23
   24820:	002adac0 	call	2adac <__srefill_r>
   24824:	103eea26 	beq	r2,zero,243d0 <_gp+0xfffe3098>
   24828:	003f7d06 	br	24620 <_gp+0xfffe32e8>
   2482c:	980b883a 	mov	r5,r19
   24830:	b809883a 	mov	r4,r23
   24834:	002adac0 	call	2adac <__srefill_r>
   24838:	103f791e 	bne	r2,zero,24620 <_gp+0xfffe32e8>
   2483c:	b4000017 	ldw	r16,0(r22)
   24840:	05000104 	movi	r20,4
   24844:	003e2a06 	br	240f0 <_gp+0xfffe2db8>
   24848:	980b883a 	mov	r5,r19
   2484c:	b809883a 	mov	r4,r23
   24850:	002adac0 	call	2adac <__srefill_r>
   24854:	103f721e 	bne	r2,zero,24620 <_gp+0xfffe32e8>
   24858:	b4000017 	ldw	r16,0(r22)
   2485c:	003e8c06 	br	24290 <_gp+0xfffe2f58>
   24860:	980b883a 	mov	r5,r19
   24864:	b809883a 	mov	r4,r23
   24868:	002adac0 	call	2adac <__srefill_r>
   2486c:	103f6c1e 	bne	r2,zero,24620 <_gp+0xfffe32e8>
   24870:	008000f4 	movhi	r2,3
   24874:	10b43504 	addi	r2,r2,-12076
   24878:	00c00284 	movi	r3,10
   2487c:	b4000017 	ldw	r16,0(r22)
   24880:	d880a115 	stw	r2,644(sp)
   24884:	d8c09e15 	stw	r3,632(sp)
   24888:	050000c4 	movi	r20,3
   2488c:	003e1806 	br	240f0 <_gp+0xfffe2db8>
   24890:	980b883a 	mov	r5,r19
   24894:	b809883a 	mov	r4,r23
   24898:	002adac0 	call	2adac <__srefill_r>
   2489c:	103f601e 	bne	r2,zero,24620 <_gp+0xfffe32e8>
   248a0:	008000f4 	movhi	r2,3
   248a4:	10b43504 	addi	r2,r2,-12076
   248a8:	00c00204 	movi	r3,8
   248ac:	b4000017 	ldw	r16,0(r22)
   248b0:	d880a115 	stw	r2,644(sp)
   248b4:	d8c09e15 	stw	r3,632(sp)
   248b8:	050000c4 	movi	r20,3
   248bc:	003e0c06 	br	240f0 <_gp+0xfffe2db8>
   248c0:	980b883a 	mov	r5,r19
   248c4:	b809883a 	mov	r4,r23
   248c8:	002adac0 	call	2adac <__srefill_r>
   248cc:	103f541e 	bne	r2,zero,24620 <_gp+0xfffe32e8>
   248d0:	008000f4 	movhi	r2,3
   248d4:	10b2d704 	addi	r2,r2,-13476
   248d8:	b4000017 	ldw	r16,0(r22)
   248dc:	d880a115 	stw	r2,644(sp)
   248e0:	d8009e15 	stw	zero,632(sp)
   248e4:	050000c4 	movi	r20,3
   248e8:	003e0106 	br	240f0 <_gp+0xfffe2db8>
   248ec:	980b883a 	mov	r5,r19
   248f0:	b809883a 	mov	r4,r23
   248f4:	002adac0 	call	2adac <__srefill_r>
   248f8:	103f491e 	bne	r2,zero,24620 <_gp+0xfffe32e8>
   248fc:	008000f4 	movhi	r2,3
   24900:	10b43504 	addi	r2,r2,-12076
   24904:	00c00404 	movi	r3,16
   24908:	b4000017 	ldw	r16,0(r22)
   2490c:	d880a115 	stw	r2,644(sp)
   24910:	d8c09e15 	stw	r3,632(sp)
   24914:	050000c4 	movi	r20,3
   24918:	003df506 	br	240f0 <_gp+0xfffe2db8>
   2491c:	014000c4 	movi	r5,3
   24920:	a1416726 	beq	r20,r5,24ec0 <__svfscanf_r+0x1208>
   24924:	01000104 	movi	r4,4
   24928:	a101491e 	bne	r20,r4,24e50 <__svfscanf_r+0x1198>
   2492c:	b809883a 	mov	r4,r23
   24930:	00285400 	call	28540 <_localeconv_r>
   24934:	10800017 	ldw	r2,0(r2)
   24938:	e0ffffc4 	addi	r3,fp,-1
   2493c:	d880a315 	stw	r2,652(sp)
   24940:	00805704 	movi	r2,348
   24944:	10c21e2e 	bgeu	r2,r3,251c0 <__svfscanf_r+0x1508>
   24948:	e73fa8c4 	addi	fp,fp,-349
   2494c:	df00a215 	stw	fp,648(sp)
   24950:	07005744 	movi	fp,349
   24954:	8d01e014 	ori	r20,r17,1920
   24958:	0023883a 	mov	r17,zero
   2495c:	dc000104 	addi	r16,sp,4
   24960:	002b883a 	mov	r21,zero
   24964:	8805883a 	mov	r2,r17
   24968:	0007883a 	mov	r3,zero
   2496c:	8023883a 	mov	r17,r16
   24970:	b80d883a 	mov	r6,r23
   24974:	e021883a 	mov	r16,fp
   24978:	a82f883a 	mov	r23,r21
   2497c:	d800a515 	stw	zero,660(sp)
   24980:	d800a415 	stw	zero,656(sp)
   24984:	d8009f15 	stw	zero,636(sp)
   24988:	01c01384 	movi	r7,78
   2498c:	182b883a 	mov	r21,r3
   24990:	1039883a 	mov	fp,r2
   24994:	99000017 	ldw	r4,0(r19)
   24998:	21400003 	ldbu	r5,0(r4)
   2499c:	28bff544 	addi	r2,r5,-43
   249a0:	10803fcc 	andi	r2,r2,255
   249a4:	38810e36 	bltu	r7,r2,24de0 <__svfscanf_r+0x1128>
   249a8:	100490ba 	slli	r2,r2,2
   249ac:	00c000b4 	movhi	r3,2
   249b0:	18d27004 	addi	r3,r3,18880
   249b4:	10c5883a 	add	r2,r2,r3
   249b8:	10800017 	ldw	r2,0(r2)
   249bc:	1000683a 	jmp	r2
   249c0:	00024cb4 	movhi	zero,2354
   249c4:	00024de0 	cmpeqi	zero,zero,2359
   249c8:	00024cb4 	movhi	zero,2354
   249cc:	00024de0 	cmpeqi	zero,zero,2359
   249d0:	00024de0 	cmpeqi	zero,zero,2359
   249d4:	00024c88 	cmpgei	zero,zero,2354
   249d8:	00024afc 	xorhi	zero,zero,2347
   249dc:	00024afc 	xorhi	zero,zero,2347
   249e0:	00024afc 	xorhi	zero,zero,2347
   249e4:	00024afc 	xorhi	zero,zero,2347
   249e8:	00024afc 	xorhi	zero,zero,2347
   249ec:	00024afc 	xorhi	zero,zero,2347
   249f0:	00024afc 	xorhi	zero,zero,2347
   249f4:	00024afc 	xorhi	zero,zero,2347
   249f8:	00024afc 	xorhi	zero,zero,2347
   249fc:	00024de0 	cmpeqi	zero,zero,2359
   24a00:	00024de0 	cmpeqi	zero,zero,2359
   24a04:	00024de0 	cmpeqi	zero,zero,2359
   24a08:	00024de0 	cmpeqi	zero,zero,2359
   24a0c:	00024de0 	cmpeqi	zero,zero,2359
   24a10:	00024de0 	cmpeqi	zero,zero,2359
   24a14:	00024de0 	cmpeqi	zero,zero,2359
   24a18:	00024dd0 	cmplti	zero,zero,2359
   24a1c:	00024de0 	cmpeqi	zero,zero,2359
   24a20:	00024de0 	cmpeqi	zero,zero,2359
   24a24:	00024de0 	cmpeqi	zero,zero,2359
   24a28:	00024d8c 	andi	zero,zero,2358
   24a2c:	00024d70 	cmpltui	zero,zero,2357
   24a30:	00024de0 	cmpeqi	zero,zero,2359
   24a34:	00024de0 	cmpeqi	zero,zero,2359
   24a38:	00024d38 	rdprs	zero,zero,2356
   24a3c:	00024de0 	cmpeqi	zero,zero,2359
   24a40:	00024de0 	cmpeqi	zero,zero,2359
   24a44:	00024de0 	cmpeqi	zero,zero,2359
   24a48:	00024de0 	cmpeqi	zero,zero,2359
   24a4c:	00024d00 	call	24d0 <__alt_mem_onchip_memory2_0-0x1db30>
   24a50:	00024de0 	cmpeqi	zero,zero,2359
   24a54:	00024de0 	cmpeqi	zero,zero,2359
   24a58:	00024de0 	cmpeqi	zero,zero,2359
   24a5c:	00024de0 	cmpeqi	zero,zero,2359
   24a60:	00024de0 	cmpeqi	zero,zero,2359
   24a64:	00024ce4 	muli	zero,zero,2355
   24a68:	00024de0 	cmpeqi	zero,zero,2359
   24a6c:	00024de0 	cmpeqi	zero,zero,2359
   24a70:	00024de0 	cmpeqi	zero,zero,2359
   24a74:	00024de0 	cmpeqi	zero,zero,2359
   24a78:	00024cc8 	cmpgei	zero,zero,2355
   24a7c:	00024de0 	cmpeqi	zero,zero,2359
   24a80:	00024de0 	cmpeqi	zero,zero,2359
   24a84:	00024de0 	cmpeqi	zero,zero,2359
   24a88:	00024de0 	cmpeqi	zero,zero,2359
   24a8c:	00024de0 	cmpeqi	zero,zero,2359
   24a90:	00024de0 	cmpeqi	zero,zero,2359
   24a94:	00024de0 	cmpeqi	zero,zero,2359
   24a98:	00024dd0 	cmplti	zero,zero,2359
   24a9c:	00024de0 	cmpeqi	zero,zero,2359
   24aa0:	00024de0 	cmpeqi	zero,zero,2359
   24aa4:	00024de0 	cmpeqi	zero,zero,2359
   24aa8:	00024d8c 	andi	zero,zero,2358
   24aac:	00024d70 	cmpltui	zero,zero,2357
   24ab0:	00024de0 	cmpeqi	zero,zero,2359
   24ab4:	00024de0 	cmpeqi	zero,zero,2359
   24ab8:	00024d38 	rdprs	zero,zero,2356
   24abc:	00024de0 	cmpeqi	zero,zero,2359
   24ac0:	00024de0 	cmpeqi	zero,zero,2359
   24ac4:	00024de0 	cmpeqi	zero,zero,2359
   24ac8:	00024de0 	cmpeqi	zero,zero,2359
   24acc:	00024d00 	call	24d0 <__alt_mem_onchip_memory2_0-0x1db30>
   24ad0:	00024de0 	cmpeqi	zero,zero,2359
   24ad4:	00024de0 	cmpeqi	zero,zero,2359
   24ad8:	00024de0 	cmpeqi	zero,zero,2359
   24adc:	00024de0 	cmpeqi	zero,zero,2359
   24ae0:	00024de0 	cmpeqi	zero,zero,2359
   24ae4:	00024ce4 	muli	zero,zero,2355
   24ae8:	00024de0 	cmpeqi	zero,zero,2359
   24aec:	00024de0 	cmpeqi	zero,zero,2359
   24af0:	00024de0 	cmpeqi	zero,zero,2359
   24af4:	00024de0 	cmpeqi	zero,zero,2359
   24af8:	00024cc8 	cmpgei	zero,zero,2355
   24afc:	a8803fcc 	andi	r2,r21,255
   24b00:	1080201c 	xori	r2,r2,128
   24b04:	10bfe004 	addi	r2,r2,-128
   24b08:	b885883a 	add	r2,r23,r2
   24b0c:	10000d1e 	bne	r2,zero,24b44 <__svfscanf_r+0xe8c>
   24b10:	00bf9fc4 	movi	r2,-385
   24b14:	a0a8703a 	and	r20,r20,r2
   24b18:	89400005 	stb	r5,0(r17)
   24b1c:	8c400044 	addi	r17,r17,1
   24b20:	98800117 	ldw	r2,4(r19)
   24b24:	843fffc4 	addi	r16,r16,-1
   24b28:	94800044 	addi	r18,r18,1
   24b2c:	10bfffc4 	addi	r2,r2,-1
   24b30:	98800115 	stw	r2,4(r19)
   24b34:	0080b40e 	bge	zero,r2,24e08 <__svfscanf_r+0x1150>
   24b38:	21000044 	addi	r4,r4,1
   24b3c:	99000015 	stw	r4,0(r19)
   24b40:	803f941e 	bne	r16,zero,24994 <_gp+0xfffe365c>
   24b44:	8821883a 	mov	r16,r17
   24b48:	a807883a 	mov	r3,r21
   24b4c:	e023883a 	mov	r17,fp
   24b50:	b82b883a 	mov	r21,r23
   24b54:	302f883a 	mov	r23,r6
   24b58:	e001961e 	bne	fp,zero,251b4 <__svfscanf_r+0x14fc>
   24b5c:	ab3fffc4 	addi	r12,r21,-1
   24b60:	00800044 	movi	r2,1
   24b64:	1302a22e 	bgeu	r2,r12,255f0 <__svfscanf_r+0x1938>
   24b68:	18803fcc 	andi	r2,r3,255
   24b6c:	1080201c 	xori	r2,r2,128
   24b70:	10bfe004 	addi	r2,r2,-128
   24b74:	113fffc4 	addi	r4,r2,-1
   24b78:	01400184 	movi	r5,6
   24b7c:	29001136 	bltu	r5,r4,24bc4 <__svfscanf_r+0xf0c>
   24b80:	01000084 	movi	r4,2
   24b84:	2082770e 	bge	r4,r2,25564 <__svfscanf_r+0x18ac>
   24b88:	054000c4 	movi	r21,3
   24b8c:	1839883a 	mov	fp,r3
   24b90:	15400c26 	beq	r2,r21,24bc4 <__svfscanf_r+0xf0c>
   24b94:	9425c83a 	sub	r18,r18,r16
   24b98:	843fffc4 	addi	r16,r16,-1
   24b9c:	81400007 	ldb	r5,0(r16)
   24ba0:	980d883a 	mov	r6,r19
   24ba4:	b809883a 	mov	r4,r23
   24ba8:	002fa180 	call	2fa18 <_ungetc_r>
   24bac:	e0bfffc4 	addi	r2,fp,-1
   24bb0:	10c03fcc 	andi	r3,r2,255
   24bb4:	8493883a 	add	r9,r16,r18
   24bb8:	1039883a 	mov	fp,r2
   24bbc:	a8fff636 	bltu	r21,r3,24b98 <_gp+0xfffe3860>
   24bc0:	4825883a 	mov	r18,r9
   24bc4:	a080400c 	andi	r2,r20,256
   24bc8:	10001426 	beq	r2,zero,24c1c <__svfscanf_r+0xf64>
   24bcc:	a081000c 	andi	r2,r20,1024
   24bd0:	10027b1e 	bne	r2,zero,255c0 <__svfscanf_r+0x1908>
   24bd4:	817fffc7 	ldb	r5,-1(r16)
   24bd8:	00801944 	movi	r2,101
   24bdc:	873fffc4 	addi	fp,r16,-1
   24be0:	957fffc4 	addi	r21,r18,-1
   24be4:	28800826 	beq	r5,r2,24c08 <__svfscanf_r+0xf50>
   24be8:	00801144 	movi	r2,69
   24bec:	28800626 	beq	r5,r2,24c08 <__svfscanf_r+0xf50>
   24bf0:	980d883a 	mov	r6,r19
   24bf4:	b809883a 	mov	r4,r23
   24bf8:	002fa180 	call	2fa18 <_ungetc_r>
   24bfc:	817fff87 	ldb	r5,-2(r16)
   24c00:	873fff84 	addi	fp,r16,-2
   24c04:	957fff84 	addi	r21,r18,-2
   24c08:	980d883a 	mov	r6,r19
   24c0c:	b809883a 	mov	r4,r23
   24c10:	002fa180 	call	2fa18 <_ungetc_r>
   24c14:	a825883a 	mov	r18,r21
   24c18:	e021883a 	mov	r16,fp
   24c1c:	a080040c 	andi	r2,r20,16
   24c20:	103e451e 	bne	r2,zero,24538 <_gp+0xfffe3200>
   24c24:	80000005 	stb	zero,0(r16)
   24c28:	a081800c 	andi	r2,r20,1536
   24c2c:	01010004 	movi	r4,1024
   24c30:	1101ea26 	beq	r2,r4,253dc <__svfscanf_r+0x1724>
   24c34:	d8c0a417 	ldw	r3,656(sp)
   24c38:	1801f41e 	bne	r3,zero,2540c <__svfscanf_r+0x1754>
   24c3c:	000d883a 	mov	r6,zero
   24c40:	d9400104 	addi	r5,sp,4
   24c44:	b809883a 	mov	r4,r23
   24c48:	002b4600 	call	2b460 <_strtod_r>
   24c4c:	1021883a 	mov	r16,r2
   24c50:	a080004c 	andi	r2,r20,1
   24c54:	1001b926 	beq	r2,zero,2533c <__svfscanf_r+0x1684>
   24c58:	d9009c17 	ldw	r4,624(sp)
   24c5c:	20800017 	ldw	r2,0(r4)
   24c60:	21000104 	addi	r4,r4,4
   24c64:	d9009c15 	stw	r4,624(sp)
   24c68:	14000015 	stw	r16,0(r2)
   24c6c:	10c00115 	stw	r3,4(r2)
   24c70:	d8c0a017 	ldw	r3,640(sp)
   24c74:	dd009d17 	ldw	r20,628(sp)
   24c78:	18c00044 	addi	r3,r3,1
   24c7c:	d8c0a015 	stw	r3,640(sp)
   24c80:	a00d883a 	mov	r6,r20
   24c84:	003c4906 	br	23dac <_gp+0xfffe2a74>
   24c88:	a080400c 	andi	r2,r20,256
   24c8c:	103f9b26 	beq	r2,zero,24afc <_gp+0xfffe37c4>
   24c90:	d8c0a217 	ldw	r3,648(sp)
   24c94:	00bfdfc4 	movi	r2,-129
   24c98:	a0a8703a 	and	r20,r20,r2
   24c9c:	e7000044 	addi	fp,fp,1
   24ca0:	183f9f26 	beq	r3,zero,24b20 <_gp+0xfffe37e8>
   24ca4:	18ffffc4 	addi	r3,r3,-1
   24ca8:	d8c0a215 	stw	r3,648(sp)
   24cac:	84000044 	addi	r16,r16,1
   24cb0:	003f9b06 	br	24b20 <_gp+0xfffe37e8>
   24cb4:	a080200c 	andi	r2,r20,128
   24cb8:	103fa226 	beq	r2,zero,24b44 <_gp+0xfffe380c>
   24cbc:	00bfdfc4 	movi	r2,-129
   24cc0:	a0a8703a 	and	r20,r20,r2
   24cc4:	003f9406 	br	24b18 <_gp+0xfffe37e0>
   24cc8:	a8803fcc 	andi	r2,r21,255
   24ccc:	1080201c 	xori	r2,r2,128
   24cd0:	10bfe004 	addi	r2,r2,-128
   24cd4:	00c001c4 	movi	r3,7
   24cd8:	10ff9a1e 	bne	r2,r3,24b44 <_gp+0xfffe380c>
   24cdc:	05400204 	movi	r21,8
   24ce0:	003f8d06 	br	24b18 <_gp+0xfffe37e0>
   24ce4:	a8803fcc 	andi	r2,r21,255
   24ce8:	1080201c 	xori	r2,r2,128
   24cec:	10bfe004 	addi	r2,r2,-128
   24cf0:	02000184 	movi	r8,6
   24cf4:	123f931e 	bne	r2,r8,24b44 <_gp+0xfffe380c>
   24cf8:	054001c4 	movi	r21,7
   24cfc:	003f8606 	br	24b18 <_gp+0xfffe37e0>
   24d00:	b8004f1e 	bne	r23,zero,24e40 <__svfscanf_r+0x1188>
   24d04:	e000031e 	bne	fp,zero,24d14 <__svfscanf_r+0x105c>
   24d08:	a081c00c 	andi	r2,r20,1792
   24d0c:	0201c004 	movi	r8,1792
   24d10:	1201a226 	beq	r2,r8,2539c <__svfscanf_r+0x16e4>
   24d14:	a8803fcc 	andi	r2,r21,255
   24d18:	1080201c 	xori	r2,r2,128
   24d1c:	10bfe004 	addi	r2,r2,-128
   24d20:	02000044 	movi	r8,1
   24d24:	12000226 	beq	r2,r8,24d30 <__svfscanf_r+0x1078>
   24d28:	02000104 	movi	r8,4
   24d2c:	123f851e 	bne	r2,r8,24b44 <_gp+0xfffe380c>
   24d30:	ad400044 	addi	r21,r21,1
   24d34:	003f7806 	br	24b18 <_gp+0xfffe37e0>
   24d38:	a8803fcc 	andi	r2,r21,255
   24d3c:	1080201c 	xori	r2,r2,128
   24d40:	10bfe004 	addi	r2,r2,-128
   24d44:	1000391e 	bne	r2,zero,24e2c <__svfscanf_r+0x1174>
   24d48:	e001151e 	bne	fp,zero,251a0 <__svfscanf_r+0x14e8>
   24d4c:	a081c00c 	andi	r2,r20,1792
   24d50:	0201c004 	movi	r8,1792
   24d54:	12019b26 	beq	r2,r8,253c4 <__svfscanf_r+0x170c>
   24d58:	8821883a 	mov	r16,r17
   24d5c:	a807883a 	mov	r3,r21
   24d60:	e023883a 	mov	r17,fp
   24d64:	b82b883a 	mov	r21,r23
   24d68:	302f883a 	mov	r23,r6
   24d6c:	003f7b06 	br	24b5c <_gp+0xfffe3824>
   24d70:	a8803fcc 	andi	r2,r21,255
   24d74:	1080201c 	xori	r2,r2,128
   24d78:	10bfe004 	addi	r2,r2,-128
   24d7c:	02000084 	movi	r8,2
   24d80:	123f701e 	bne	r2,r8,24b44 <_gp+0xfffe380c>
   24d84:	054000c4 	movi	r21,3
   24d88:	003f6306 	br	24b18 <_gp+0xfffe37e0>
   24d8c:	a081400c 	andi	r2,r20,1280
   24d90:	00c10004 	movi	r3,1024
   24d94:	10c00326 	beq	r2,r3,24da4 <__svfscanf_r+0x10ec>
   24d98:	a0c4703a 	and	r2,r20,r3
   24d9c:	103f6926 	beq	r2,zero,24b44 <_gp+0xfffe380c>
   24da0:	e03fed26 	beq	fp,zero,24d58 <_gp+0xfffe3a20>
   24da4:	a080800c 	andi	r2,r20,512
   24da8:	1000041e 	bne	r2,zero,24dbc <__svfscanf_r+0x1104>
   24dac:	d8c09f17 	ldw	r3,636(sp)
   24db0:	dc40a515 	stw	r17,660(sp)
   24db4:	e0f9c83a 	sub	fp,fp,r3
   24db8:	df00a415 	stw	fp,656(sp)
   24dbc:	00be1fc4 	movi	r2,-1921
   24dc0:	a0a8703a 	and	r20,r20,r2
   24dc4:	a5006014 	ori	r20,r20,384
   24dc8:	0039883a 	mov	fp,zero
   24dcc:	003f5206 	br	24b18 <_gp+0xfffe37e0>
   24dd0:	00800044 	movi	r2,1
   24dd4:	b8bf5b1e 	bne	r23,r2,24b44 <_gp+0xfffe380c>
   24dd8:	05c00084 	movi	r23,2
   24ddc:	003f4e06 	br	24b18 <_gp+0xfffe37e0>
   24de0:	d8c0a317 	ldw	r3,652(sp)
   24de4:	2a003fcc 	andi	r8,r5,255
   24de8:	18800003 	ldbu	r2,0(r3)
   24dec:	40bf551e 	bne	r8,r2,24b44 <_gp+0xfffe380c>
   24df0:	a080800c 	andi	r2,r20,512
   24df4:	103f5326 	beq	r2,zero,24b44 <_gp+0xfffe380c>
   24df8:	00bf5fc4 	movi	r2,-641
   24dfc:	a0a8703a 	and	r20,r20,r2
   24e00:	df009f15 	stw	fp,636(sp)
   24e04:	003f4406 	br	24b18 <_gp+0xfffe37e0>
   24e08:	3009883a 	mov	r4,r6
   24e0c:	980b883a 	mov	r5,r19
   24e10:	d980a915 	stw	r6,676(sp)
   24e14:	d9c0aa15 	stw	r7,680(sp)
   24e18:	002adac0 	call	2adac <__srefill_r>
   24e1c:	d980a917 	ldw	r6,676(sp)
   24e20:	d9c0aa17 	ldw	r7,680(sp)
   24e24:	103f4626 	beq	r2,zero,24b40 <_gp+0xfffe3808>
   24e28:	003f4606 	br	24b44 <_gp+0xfffe380c>
   24e2c:	020000c4 	movi	r8,3
   24e30:	123fbf26 	beq	r2,r8,24d30 <_gp+0xfffe39f8>
   24e34:	02000144 	movi	r8,5
   24e38:	123fbd26 	beq	r2,r8,24d30 <_gp+0xfffe39f8>
   24e3c:	003f4106 	br	24b44 <_gp+0xfffe380c>
   24e40:	00800084 	movi	r2,2
   24e44:	b8bfb31e 	bne	r23,r2,24d14 <_gp+0xfffe39dc>
   24e48:	05c000c4 	movi	r23,3
   24e4c:	003f3206 	br	24b18 <_gp+0xfffe37e0>
   24e50:	e000011e 	bne	fp,zero,24e58 <__svfscanf_r+0x11a0>
   24e54:	073fffc4 	movi	fp,-1
   24e58:	8900004c 	andi	r4,r17,1
   24e5c:	20011d1e 	bne	r4,zero,252d4 <__svfscanf_r+0x161c>
   24e60:	8c40040c 	andi	r17,r17,16
   24e64:	8800da26 	beq	r17,zero,251d0 <__svfscanf_r+0x1518>
   24e68:	0023883a 	mov	r17,zero
   24e6c:	00000306 	br	24e7c <__svfscanf_r+0x11c4>
   24e70:	18800003 	ldbu	r2,0(r3)
   24e74:	8085883a 	add	r2,r16,r2
   24e78:	10800043 	ldbu	r2,1(r2)
   24e7c:	1080020c 	andi	r2,r2,8
   24e80:	1000fc1e 	bne	r2,zero,25274 <__svfscanf_r+0x15bc>
   24e84:	98800117 	ldw	r2,4(r19)
   24e88:	18c00044 	addi	r3,r3,1
   24e8c:	8c400044 	addi	r17,r17,1
   24e90:	10bfffc4 	addi	r2,r2,-1
   24e94:	98800115 	stw	r2,4(r19)
   24e98:	98c00015 	stw	r3,0(r19)
   24e9c:	8f00f526 	beq	r17,fp,25274 <__svfscanf_r+0x15bc>
   24ea0:	00bff316 	blt	zero,r2,24e70 <_gp+0xfffe3b38>
   24ea4:	980b883a 	mov	r5,r19
   24ea8:	b809883a 	mov	r4,r23
   24eac:	002adac0 	call	2adac <__srefill_r>
   24eb0:	1000f01e 	bne	r2,zero,25274 <__svfscanf_r+0x15bc>
   24eb4:	b4000017 	ldw	r16,0(r22)
   24eb8:	98c00017 	ldw	r3,0(r19)
   24ebc:	003fec06 	br	24e70 <_gp+0xfffe3b38>
   24ec0:	e0bfffc4 	addi	r2,fp,-1
   24ec4:	01405704 	movi	r5,348
   24ec8:	2880bf2e 	bgeu	r5,r2,251c8 <__svfscanf_r+0x1510>
   24ecc:	e1ffa8c4 	addi	r7,fp,-349
   24ed0:	07005744 	movi	fp,349
   24ed4:	8c436014 	ori	r17,r17,3456
   24ed8:	9013883a 	mov	r9,r18
   24edc:	8825883a 	mov	r18,r17
   24ee0:	dc409e17 	ldw	r17,632(sp)
   24ee4:	0029883a 	mov	r20,zero
   24ee8:	dc000104 	addi	r16,sp,4
   24eec:	05401344 	movi	r21,77
   24ef0:	02c08004 	movi	r11,512
   24ef4:	01bf7fc4 	movi	r6,-513
   24ef8:	023fdfc4 	movi	r8,-129
   24efc:	20bff544 	addi	r2,r4,-43
   24f00:	10803fcc 	andi	r2,r2,255
   24f04:	a8807236 	bltu	r21,r2,250d0 <__svfscanf_r+0x1418>
   24f08:	100490ba 	slli	r2,r2,2
   24f0c:	014000b4 	movhi	r5,2
   24f10:	2953c804 	addi	r5,r5,20256
   24f14:	1145883a 	add	r2,r2,r5
   24f18:	10800017 	ldw	r2,0(r2)
   24f1c:	1000683a 	jmp	r2
   24f20:	00025154 	movui	zero,2373
   24f24:	000250d0 	cmplti	zero,zero,2371
   24f28:	00025154 	movui	zero,2373
   24f2c:	000250d0 	cmplti	zero,zero,2371
   24f30:	000250d0 	cmplti	zero,zero,2371
   24f34:	0002512c 	andhi	zero,zero,2372
   24f38:	0002510c 	andi	zero,zero,2372
   24f3c:	0002510c 	andi	zero,zero,2372
   24f40:	0002510c 	andi	zero,zero,2372
   24f44:	0002510c 	andi	zero,zero,2372
   24f48:	0002510c 	andi	zero,zero,2372
   24f4c:	0002510c 	andi	zero,zero,2372
   24f50:	0002510c 	andi	zero,zero,2372
   24f54:	000250b4 	movhi	zero,2370
   24f58:	000250b4 	movhi	zero,2370
   24f5c:	000250d0 	cmplti	zero,zero,2371
   24f60:	000250d0 	cmplti	zero,zero,2371
   24f64:	000250d0 	cmplti	zero,zero,2371
   24f68:	000250d0 	cmplti	zero,zero,2371
   24f6c:	000250d0 	cmplti	zero,zero,2371
   24f70:	000250d0 	cmplti	zero,zero,2371
   24f74:	000250d0 	cmplti	zero,zero,2371
   24f78:	000250a0 	cmpeqi	zero,zero,2370
   24f7c:	000250a0 	cmpeqi	zero,zero,2370
   24f80:	000250a0 	cmpeqi	zero,zero,2370
   24f84:	000250a0 	cmpeqi	zero,zero,2370
   24f88:	000250a0 	cmpeqi	zero,zero,2370
   24f8c:	000250a0 	cmpeqi	zero,zero,2370
   24f90:	000250d0 	cmplti	zero,zero,2371
   24f94:	000250d0 	cmplti	zero,zero,2371
   24f98:	000250d0 	cmplti	zero,zero,2371
   24f9c:	000250d0 	cmplti	zero,zero,2371
   24fa0:	000250d0 	cmplti	zero,zero,2371
   24fa4:	000250d0 	cmplti	zero,zero,2371
   24fa8:	000250d0 	cmplti	zero,zero,2371
   24fac:	000250d0 	cmplti	zero,zero,2371
   24fb0:	000250d0 	cmplti	zero,zero,2371
   24fb4:	000250d0 	cmplti	zero,zero,2371
   24fb8:	000250d0 	cmplti	zero,zero,2371
   24fbc:	000250d0 	cmplti	zero,zero,2371
   24fc0:	000250d0 	cmplti	zero,zero,2371
   24fc4:	000250d0 	cmplti	zero,zero,2371
   24fc8:	000250d0 	cmplti	zero,zero,2371
   24fcc:	000250d0 	cmplti	zero,zero,2371
   24fd0:	000250d0 	cmplti	zero,zero,2371
   24fd4:	00025058 	cmpnei	zero,zero,2369
   24fd8:	000250d0 	cmplti	zero,zero,2371
   24fdc:	000250d0 	cmplti	zero,zero,2371
   24fe0:	000250d0 	cmplti	zero,zero,2371
   24fe4:	000250d0 	cmplti	zero,zero,2371
   24fe8:	000250d0 	cmplti	zero,zero,2371
   24fec:	000250d0 	cmplti	zero,zero,2371
   24ff0:	000250d0 	cmplti	zero,zero,2371
   24ff4:	000250d0 	cmplti	zero,zero,2371
   24ff8:	000250a0 	cmpeqi	zero,zero,2370
   24ffc:	000250a0 	cmpeqi	zero,zero,2370
   25000:	000250a0 	cmpeqi	zero,zero,2370
   25004:	000250a0 	cmpeqi	zero,zero,2370
   25008:	000250a0 	cmpeqi	zero,zero,2370
   2500c:	000250a0 	cmpeqi	zero,zero,2370
   25010:	000250d0 	cmplti	zero,zero,2371
   25014:	000250d0 	cmplti	zero,zero,2371
   25018:	000250d0 	cmplti	zero,zero,2371
   2501c:	000250d0 	cmplti	zero,zero,2371
   25020:	000250d0 	cmplti	zero,zero,2371
   25024:	000250d0 	cmplti	zero,zero,2371
   25028:	000250d0 	cmplti	zero,zero,2371
   2502c:	000250d0 	cmplti	zero,zero,2371
   25030:	000250d0 	cmplti	zero,zero,2371
   25034:	000250d0 	cmplti	zero,zero,2371
   25038:	000250d0 	cmplti	zero,zero,2371
   2503c:	000250d0 	cmplti	zero,zero,2371
   25040:	000250d0 	cmplti	zero,zero,2371
   25044:	000250d0 	cmplti	zero,zero,2371
   25048:	000250d0 	cmplti	zero,zero,2371
   2504c:	000250d0 	cmplti	zero,zero,2371
   25050:	000250d0 	cmplti	zero,zero,2371
   25054:	00025058 	cmpnei	zero,zero,2369
   25058:	9081800c 	andi	r2,r18,1536
   2505c:	12c01c1e 	bne	r2,r11,250d0 <__svfscanf_r+0x1418>
   25060:	91a4703a 	and	r18,r18,r6
   25064:	94814014 	ori	r18,r18,1280
   25068:	04400404 	movi	r17,16
   2506c:	81000005 	stb	r4,0(r16)
   25070:	84000044 	addi	r16,r16,1
   25074:	98800117 	ldw	r2,4(r19)
   25078:	10bfffc4 	addi	r2,r2,-1
   2507c:	98800115 	stw	r2,4(r19)
   25080:	0080380e 	bge	zero,r2,25164 <__svfscanf_r+0x14ac>
   25084:	18c00044 	addi	r3,r3,1
   25088:	98c00015 	stw	r3,0(r19)
   2508c:	e73fffc4 	addi	fp,fp,-1
   25090:	e0000f26 	beq	fp,zero,250d0 <__svfscanf_r+0x1418>
   25094:	98c00017 	ldw	r3,0(r19)
   25098:	19000003 	ldbu	r4,0(r3)
   2509c:	003f9706 	br	24efc <_gp+0xfffe3bc4>
   250a0:	00800284 	movi	r2,10
   250a4:	14400a0e 	bge	r2,r17,250d0 <__svfscanf_r+0x1418>
   250a8:	00bd1fc4 	movi	r2,-2945
   250ac:	90a4703a 	and	r18,r18,r2
   250b0:	003fee06 	br	2506c <_gp+0xfffe3d34>
   250b4:	01400134 	movhi	r5,4
   250b8:	8c63883a 	add	r17,r17,r17
   250bc:	2960fb84 	addi	r5,r5,-31762
   250c0:	2c45883a 	add	r2,r5,r17
   250c4:	1440000f 	ldh	r17,0(r2)
   250c8:	00800204 	movi	r2,8
   250cc:	147ff616 	blt	r2,r17,250a8 <_gp+0xfffe3d70>
   250d0:	dc409e15 	stw	r17,632(sp)
   250d4:	9023883a 	mov	r17,r18
   250d8:	8880400c 	andi	r2,r17,256
   250dc:	4825883a 	mov	r18,r9
   250e0:	10000426 	beq	r2,zero,250f4 <__svfscanf_r+0x143c>
   250e4:	d8800104 	addi	r2,sp,4
   250e8:	1400b036 	bltu	r2,r16,253ac <__svfscanf_r+0x16f4>
   250ec:	d8c00104 	addi	r3,sp,4
   250f0:	1c3b3226 	beq	r3,r16,23dbc <_gp+0xfffe2a84>
   250f4:	8880040c 	andi	r2,r17,16
   250f8:	10006226 	beq	r2,zero,25284 <__svfscanf_r+0x15cc>
   250fc:	d8800104 	addi	r2,sp,4
   25100:	80a1c83a 	sub	r16,r16,r2
   25104:	8521883a 	add	r16,r16,r20
   25108:	003ca506 	br	243a0 <_gp+0xfffe3068>
   2510c:	01400134 	movhi	r5,4
   25110:	8c63883a 	add	r17,r17,r17
   25114:	2960fb84 	addi	r5,r5,-31762
   25118:	2c45883a 	add	r2,r5,r17
   2511c:	1440000f 	ldh	r17,0(r2)
   25120:	00bd1fc4 	movi	r2,-2945
   25124:	90a4703a 	and	r18,r18,r2
   25128:	003fd006 	br	2506c <_gp+0xfffe3d34>
   2512c:	9082000c 	andi	r2,r18,2048
   25130:	103fce26 	beq	r2,zero,2506c <_gp+0xfffe3d34>
   25134:	8800021e 	bne	r17,zero,25140 <__svfscanf_r+0x1488>
   25138:	94808014 	ori	r18,r18,512
   2513c:	04400204 	movi	r17,8
   25140:	9081000c 	andi	r2,r18,1024
   25144:	10008626 	beq	r2,zero,25360 <__svfscanf_r+0x16a8>
   25148:	00be9fc4 	movi	r2,-1409
   2514c:	90a4703a 	and	r18,r18,r2
   25150:	003fc606 	br	2506c <_gp+0xfffe3d34>
   25154:	9080200c 	andi	r2,r18,128
   25158:	103fdd26 	beq	r2,zero,250d0 <_gp+0xfffe3d98>
   2515c:	9224703a 	and	r18,r18,r8
   25160:	003fc206 	br	2506c <_gp+0xfffe3d34>
   25164:	980b883a 	mov	r5,r19
   25168:	b809883a 	mov	r4,r23
   2516c:	d980a915 	stw	r6,676(sp)
   25170:	d9c0aa15 	stw	r7,680(sp)
   25174:	da00a715 	stw	r8,668(sp)
   25178:	da40a815 	stw	r9,672(sp)
   2517c:	dac0a615 	stw	r11,664(sp)
   25180:	002adac0 	call	2adac <__srefill_r>
   25184:	d980a917 	ldw	r6,676(sp)
   25188:	d9c0aa17 	ldw	r7,680(sp)
   2518c:	da00a717 	ldw	r8,668(sp)
   25190:	da40a817 	ldw	r9,672(sp)
   25194:	dac0a617 	ldw	r11,664(sp)
   25198:	103fbc26 	beq	r2,zero,2508c <_gp+0xfffe3d54>
   2519c:	003fcc06 	br	250d0 <_gp+0xfffe3d98>
   251a0:	8821883a 	mov	r16,r17
   251a4:	a807883a 	mov	r3,r21
   251a8:	e023883a 	mov	r17,fp
   251ac:	b82b883a 	mov	r21,r23
   251b0:	302f883a 	mov	r23,r6
   251b4:	00bfbfc4 	movi	r2,-257
   251b8:	a0a8703a 	and	r20,r20,r2
   251bc:	003e6706 	br	24b5c <_gp+0xfffe3824>
   251c0:	d800a215 	stw	zero,648(sp)
   251c4:	003de306 	br	24954 <_gp+0xfffe361c>
   251c8:	000f883a 	mov	r7,zero
   251cc:	003f4106 	br	24ed4 <_gp+0xfffe3b9c>
   251d0:	d9409c17 	ldw	r5,624(sp)
   251d4:	e2bfffc4 	addi	r10,fp,-1
   251d8:	2c400017 	ldw	r17,0(r5)
   251dc:	2c000104 	addi	r16,r5,4
   251e0:	8aa9883a 	add	r20,r17,r10
   251e4:	880b883a 	mov	r5,r17
   251e8:	00000606 	br	25204 <__svfscanf_r+0x154c>
   251ec:	98c00017 	ldw	r3,0(r19)
   251f0:	b1000017 	ldw	r4,0(r22)
   251f4:	a80b883a 	mov	r5,r21
   251f8:	18800003 	ldbu	r2,0(r3)
   251fc:	2085883a 	add	r2,r4,r2
   25200:	10800043 	ldbu	r2,1(r2)
   25204:	1080020c 	andi	r2,r2,8
   25208:	1000621e 	bne	r2,zero,25394 <__svfscanf_r+0x16dc>
   2520c:	98800117 	ldw	r2,4(r19)
   25210:	19000044 	addi	r4,r3,1
   25214:	99000015 	stw	r4,0(r19)
   25218:	10bfffc4 	addi	r2,r2,-1
   2521c:	98800115 	stw	r2,4(r19)
   25220:	18800003 	ldbu	r2,0(r3)
   25224:	2d400044 	addi	r21,r5,1
   25228:	a839883a 	mov	fp,r21
   2522c:	28800005 	stb	r2,0(r5)
   25230:	2d000626 	beq	r5,r20,2524c <__svfscanf_r+0x1594>
   25234:	98800117 	ldw	r2,4(r19)
   25238:	00bfec16 	blt	zero,r2,251ec <_gp+0xfffe3eb4>
   2523c:	980b883a 	mov	r5,r19
   25240:	b809883a 	mov	r4,r23
   25244:	002adac0 	call	2adac <__srefill_r>
   25248:	103fe826 	beq	r2,zero,251ec <_gp+0xfffe3eb4>
   2524c:	d880a017 	ldw	r2,640(sp)
   25250:	dd009d17 	ldw	r20,628(sp)
   25254:	e463c83a 	sub	r17,fp,r17
   25258:	10800044 	addi	r2,r2,1
   2525c:	e0000005 	stb	zero,0(fp)
   25260:	9465883a 	add	r18,r18,r17
   25264:	d880a015 	stw	r2,640(sp)
   25268:	dc009c15 	stw	r16,624(sp)
   2526c:	a00d883a 	mov	r6,r20
   25270:	003ace06 	br	23dac <_gp+0xfffe2a74>
   25274:	dd009d17 	ldw	r20,628(sp)
   25278:	9465883a 	add	r18,r18,r17
   2527c:	a00d883a 	mov	r6,r20
   25280:	003aca06 	br	23dac <_gp+0xfffe2a74>
   25284:	d8c0a117 	ldw	r3,644(sp)
   25288:	d9c09e17 	ldw	r7,632(sp)
   2528c:	000d883a 	mov	r6,zero
   25290:	d9400104 	addi	r5,sp,4
   25294:	b809883a 	mov	r4,r23
   25298:	80000005 	stb	zero,0(r16)
   2529c:	183ee83a 	callr	r3
   252a0:	88c0080c 	andi	r3,r17,32
   252a4:	1800351e 	bne	r3,zero,2537c <__svfscanf_r+0x16c4>
   252a8:	88c0010c 	andi	r3,r17,4
   252ac:	18007026 	beq	r3,zero,25470 <__svfscanf_r+0x17b8>
   252b0:	d9409c17 	ldw	r5,624(sp)
   252b4:	28c00017 	ldw	r3,0(r5)
   252b8:	29400104 	addi	r5,r5,4
   252bc:	d9409c15 	stw	r5,624(sp)
   252c0:	1880000d 	sth	r2,0(r3)
   252c4:	d940a017 	ldw	r5,640(sp)
   252c8:	29400044 	addi	r5,r5,1
   252cc:	d940a015 	stw	r5,640(sp)
   252d0:	003f8a06 	br	250fc <_gp+0xfffe3dc4>
   252d4:	dd409904 	addi	r21,sp,612
   252d8:	8c40040c 	andi	r17,r17,16
   252dc:	01800204 	movi	r6,8
   252e0:	000b883a 	mov	r5,zero
   252e4:	a809883a 	mov	r4,r21
   252e8:	00294e40 	call	294e4 <memset>
   252ec:	8800391e 	bne	r17,zero,253d4 <__svfscanf_r+0x171c>
   252f0:	d8c09c17 	ldw	r3,624(sp)
   252f4:	1d000017 	ldw	r20,0(r3)
   252f8:	18c00104 	addi	r3,r3,4
   252fc:	d8c09c15 	stw	r3,624(sp)
   25300:	000d883a 	mov	r6,zero
   25304:	3021883a 	mov	r16,r6
   25308:	dc409f15 	stw	r17,636(sp)
   2530c:	98800017 	ldw	r2,0(r19)
   25310:	b0c00017 	ldw	r3,0(r22)
   25314:	10800003 	ldbu	r2,0(r2)
   25318:	1885883a 	add	r2,r3,r2
   2531c:	10800043 	ldbu	r2,1(r2)
   25320:	1080020c 	andi	r2,r2,8
   25324:	1000011e 	bne	r2,zero,2532c <__svfscanf_r+0x1674>
   25328:	e000651e 	bne	fp,zero,254c0 <__svfscanf_r+0x1808>
   2532c:	dc409f17 	ldw	r17,636(sp)
   25330:	883c811e 	bne	r17,zero,24538 <_gp+0xfffe3200>
   25334:	a0000015 	stw	zero,0(r20)
   25338:	003c7c06 	br	2452c <_gp+0xfffe31f4>
   2533c:	a2c0008c 	andi	r11,r20,2
   25340:	58003c26 	beq	r11,zero,25434 <__svfscanf_r+0x177c>
   25344:	d9409c17 	ldw	r5,624(sp)
   25348:	28800017 	ldw	r2,0(r5)
   2534c:	29400104 	addi	r5,r5,4
   25350:	d9409c15 	stw	r5,624(sp)
   25354:	14000015 	stw	r16,0(r2)
   25358:	10c00115 	stw	r3,4(r2)
   2535c:	003e4406 	br	24c70 <_gp+0xfffe3938>
   25360:	00bf1fc4 	movi	r2,-897
   25364:	90a4703a 	and	r18,r18,r2
   25368:	38000226 	beq	r7,zero,25374 <__svfscanf_r+0x16bc>
   2536c:	39ffffc4 	addi	r7,r7,-1
   25370:	e7000044 	addi	fp,fp,1
   25374:	a5000044 	addi	r20,r20,1
   25378:	003f3e06 	br	25074 <_gp+0xfffe3d3c>
   2537c:	d9009c17 	ldw	r4,624(sp)
   25380:	20c00017 	ldw	r3,0(r4)
   25384:	21000104 	addi	r4,r4,4
   25388:	d9009c15 	stw	r4,624(sp)
   2538c:	18800015 	stw	r2,0(r3)
   25390:	003fcc06 	br	252c4 <_gp+0xfffe3f8c>
   25394:	2839883a 	mov	fp,r5
   25398:	003fac06 	br	2524c <_gp+0xfffe3f14>
   2539c:	00be1fc4 	movi	r2,-1921
   253a0:	a0a8703a 	and	r20,r20,r2
   253a4:	05c00044 	movi	r23,1
   253a8:	003ddb06 	br	24b18 <_gp+0xfffe37e0>
   253ac:	817fffc7 	ldb	r5,-1(r16)
   253b0:	980d883a 	mov	r6,r19
   253b4:	b809883a 	mov	r4,r23
   253b8:	843fffc4 	addi	r16,r16,-1
   253bc:	002fa180 	call	2fa18 <_ungetc_r>
   253c0:	003f4a06 	br	250ec <_gp+0xfffe3db4>
   253c4:	00fe1fc4 	movi	r3,-1921
   253c8:	a0e8703a 	and	r20,r20,r3
   253cc:	05400044 	movi	r21,1
   253d0:	003dd106 	br	24b18 <_gp+0xfffe37e0>
   253d4:	dd009b04 	addi	r20,sp,620
   253d8:	003fc906 	br	25300 <_gp+0xfffe3fc8>
   253dc:	d8c09f17 	ldw	r3,636(sp)
   253e0:	88e3c83a 	sub	r17,r17,r3
   253e4:	044dc83a 	sub	r6,zero,r17
   253e8:	883e1426 	beq	r17,zero,24c3c <_gp+0xfffe3904>
   253ec:	d88055c4 	addi	r2,sp,343
   253f0:	80800136 	bltu	r16,r2,253f8 <__svfscanf_r+0x1740>
   253f4:	dc005584 	addi	r16,sp,342
   253f8:	01400134 	movhi	r5,4
   253fc:	2960fa04 	addi	r5,r5,-31768
   25400:	8009883a 	mov	r4,r16
   25404:	002b1780 	call	2b178 <sprintf>
   25408:	003e0c06 	br	24c3c <_gp+0xfffe3904>
   2540c:	d8c0a517 	ldw	r3,660(sp)
   25410:	000d883a 	mov	r6,zero
   25414:	01c00284 	movi	r7,10
   25418:	19400044 	addi	r5,r3,1
   2541c:	b809883a 	mov	r4,r23
   25420:	002cb5c0 	call	2cb5c <_strtol_r>
   25424:	d8c0a417 	ldw	r3,656(sp)
   25428:	dc00a517 	ldw	r16,660(sp)
   2542c:	10cdc83a 	sub	r6,r2,r3
   25430:	003fee06 	br	253ec <_gp+0xfffe40b4>
   25434:	d8809c17 	ldw	r2,624(sp)
   25438:	180b883a 	mov	r5,r3
   2543c:	8009883a 	mov	r4,r16
   25440:	15000017 	ldw	r20,0(r2)
   25444:	14400104 	addi	r17,r2,4
   25448:	d8c0a615 	stw	r3,664(sp)
   2544c:	002af800 	call	2af80 <__fpclassifyd>
   25450:	d8c0a617 	ldw	r3,664(sp)
   25454:	10007226 	beq	r2,zero,25620 <__svfscanf_r+0x1968>
   25458:	8009883a 	mov	r4,r16
   2545c:	180b883a 	mov	r5,r3
   25460:	00377500 	call	37750 <__truncdfsf2>
   25464:	a0800015 	stw	r2,0(r20)
   25468:	dc409c15 	stw	r17,624(sp)
   2546c:	003e0006 	br	24c70 <_gp+0xfffe3938>
   25470:	88c0004c 	andi	r3,r17,1
   25474:	183fc11e 	bne	r3,zero,2537c <_gp+0xfffe4044>
   25478:	8c40008c 	andi	r17,r17,2
   2547c:	883fbf26 	beq	r17,zero,2537c <_gp+0xfffe4044>
   25480:	d940a117 	ldw	r5,644(sp)
   25484:	008000f4 	movhi	r2,3
   25488:	10b43504 	addi	r2,r2,-12076
   2548c:	d9c09e17 	ldw	r7,632(sp)
   25490:	000d883a 	mov	r6,zero
   25494:	28806726 	beq	r5,r2,25634 <__svfscanf_r+0x197c>
   25498:	d9400104 	addi	r5,sp,4
   2549c:	b809883a 	mov	r4,r23
   254a0:	002cdd00 	call	2cdd0 <_strtoll_r>
   254a4:	d9409c17 	ldw	r5,624(sp)
   254a8:	29000017 	ldw	r4,0(r5)
   254ac:	29400104 	addi	r5,r5,4
   254b0:	d9409c15 	stw	r5,624(sp)
   254b4:	20800015 	stw	r2,0(r4)
   254b8:	20c00115 	stw	r3,4(r4)
   254bc:	003f8106 	br	252c4 <_gp+0xfffe3f8c>
   254c0:	002851c0 	call	2851c <__locale_mb_cur_max>
   254c4:	80bc5626 	beq	r16,r2,24620 <_gp+0xfffe32e8>
   254c8:	98800017 	ldw	r2,0(r19)
   254cc:	99000117 	ldw	r4,4(r19)
   254d0:	d9400104 	addi	r5,sp,4
   254d4:	12000003 	ldbu	r8,0(r2)
   254d8:	213fffc4 	addi	r4,r4,-1
   254dc:	10800044 	addi	r2,r2,1
   254e0:	99000115 	stw	r4,4(r19)
   254e4:	98800015 	stw	r2,0(r19)
   254e8:	84400044 	addi	r17,r16,1
   254ec:	dd400015 	stw	r21,0(sp)
   254f0:	2c21883a 	add	r16,r5,r16
   254f4:	280d883a 	mov	r6,r5
   254f8:	880f883a 	mov	r7,r17
   254fc:	a00b883a 	mov	r5,r20
   25500:	b809883a 	mov	r4,r23
   25504:	82000005 	stb	r8,0(r16)
   25508:	0028f380 	call	28f38 <_mbrtowc_r>
   2550c:	00ffffc4 	movi	r3,-1
   25510:	10fc4326 	beq	r2,r3,24620 <_gp+0xfffe32e8>
   25514:	103c371e 	bne	r2,zero,245f4 <_gp+0xfffe32bc>
   25518:	a0000015 	stw	zero,0(r20)
   2551c:	0009883a 	mov	r4,zero
   25520:	00284640 	call	28464 <iswspace>
   25524:	10001b26 	beq	r2,zero,25594 <__svfscanf_r+0x18dc>
   25528:	8821883a 	mov	r16,r17
   2552c:	dc409f17 	ldw	r17,636(sp)
   25530:	803f7f26 	beq	r16,zero,25330 <_gp+0xfffe3ff8>
   25534:	843fffc4 	addi	r16,r16,-1
   25538:	d9400104 	addi	r5,sp,4
   2553c:	2c2b883a 	add	r21,r5,r16
   25540:	00000106 	br	25548 <__svfscanf_r+0x1890>
   25544:	843fffc4 	addi	r16,r16,-1
   25548:	a9400003 	ldbu	r5,0(r21)
   2554c:	980d883a 	mov	r6,r19
   25550:	b809883a 	mov	r4,r23
   25554:	002fa180 	call	2fa18 <_ungetc_r>
   25558:	ad7fffc4 	addi	r21,r21,-1
   2555c:	803ff91e 	bne	r16,zero,25544 <_gp+0xfffe420c>
   25560:	003f7306 	br	25330 <_gp+0xfffe3ff8>
   25564:	d9400104 	addi	r5,sp,4
   25568:	802b883a 	mov	r21,r16
   2556c:	9839883a 	mov	fp,r19
   25570:	2c3a122e 	bgeu	r5,r16,23dbc <_gp+0xfffe2a84>
   25574:	ad7fffc4 	addi	r21,r21,-1
   25578:	a9400007 	ldb	r5,0(r21)
   2557c:	e00d883a 	mov	r6,fp
   25580:	b809883a 	mov	r4,r23
   25584:	002fa180 	call	2fa18 <_ungetc_r>
   25588:	d8800104 	addi	r2,sp,4
   2558c:	157ff91e 	bne	r2,r21,25574 <_gp+0xfffe423c>
   25590:	003a0a06 	br	23dbc <_gp+0xfffe2a84>
   25594:	d8c09f17 	ldw	r3,636(sp)
   25598:	9465883a 	add	r18,r18,r17
   2559c:	e73fffc4 	addi	fp,fp,-1
   255a0:	1800051e 	bne	r3,zero,255b8 <__svfscanf_r+0x1900>
   255a4:	a5000104 	addi	r20,r20,4
   255a8:	0021883a 	mov	r16,zero
   255ac:	003c1406 	br	24600 <_gp+0xfffe32c8>
   255b0:	a1000017 	ldw	r4,0(r20)
   255b4:	003fda06 	br	25520 <_gp+0xfffe41e8>
   255b8:	0021883a 	mov	r16,zero
   255bc:	003c1006 	br	24600 <_gp+0xfffe32c8>
   255c0:	d8c00104 	addi	r3,sp,4
   255c4:	802b883a 	mov	r21,r16
   255c8:	9839883a 	mov	fp,r19
   255cc:	1c39fb2e 	bgeu	r3,r16,23dbc <_gp+0xfffe2a84>
   255d0:	ad7fffc4 	addi	r21,r21,-1
   255d4:	a9400007 	ldb	r5,0(r21)
   255d8:	b809883a 	mov	r4,r23
   255dc:	e00d883a 	mov	r6,fp
   255e0:	002fa180 	call	2fa18 <_ungetc_r>
   255e4:	d9000104 	addi	r4,sp,4
   255e8:	257ff91e 	bne	r4,r21,255d0 <_gp+0xfffe4298>
   255ec:	0039f306 	br	23dbc <_gp+0xfffe2a84>
   255f0:	d8c00104 	addi	r3,sp,4
   255f4:	802b883a 	mov	r21,r16
   255f8:	9839883a 	mov	fp,r19
   255fc:	1c39ef2e 	bgeu	r3,r16,23dbc <_gp+0xfffe2a84>
   25600:	ad7fffc4 	addi	r21,r21,-1
   25604:	a9400007 	ldb	r5,0(r21)
   25608:	b809883a 	mov	r4,r23
   2560c:	e00d883a 	mov	r6,fp
   25610:	002fa180 	call	2fa18 <_ungetc_r>
   25614:	d9000104 	addi	r4,sp,4
   25618:	257ff91e 	bne	r4,r21,25600 <_gp+0xfffe42c8>
   2561c:	0039e706 	br	23dbc <_gp+0xfffe2a84>
   25620:	0009883a 	mov	r4,zero
   25624:	002b1180 	call	2b118 <nanf>
   25628:	a0800015 	stw	r2,0(r20)
   2562c:	dc409c15 	stw	r17,624(sp)
   25630:	003d8f06 	br	24c70 <_gp+0xfffe3938>
   25634:	d9400104 	addi	r5,sp,4
   25638:	b809883a 	mov	r4,r23
   2563c:	002d3680 	call	2d368 <_strtoull_r>
   25640:	003f9806 	br	254a4 <_gp+0xfffe416c>

00025644 <vfscanf>:
   25644:	00800134 	movhi	r2,4
   25648:	defffb04 	addi	sp,sp,-20
   2564c:	10a4cf04 	addi	r2,r2,-27844
   25650:	dc000215 	stw	r16,8(sp)
   25654:	14000017 	ldw	r16,0(r2)
   25658:	dc400315 	stw	r17,12(sp)
   2565c:	dfc00415 	stw	ra,16(sp)
   25660:	2023883a 	mov	r17,r4
   25664:	80000826 	beq	r16,zero,25688 <vfscanf+0x44>
   25668:	80800e17 	ldw	r2,56(r16)
   2566c:	1000061e 	bne	r2,zero,25688 <vfscanf+0x44>
   25670:	8009883a 	mov	r4,r16
   25674:	d9400015 	stw	r5,0(sp)
   25678:	d9800115 	stw	r6,4(sp)
   2567c:	00277200 	call	27720 <__sinit>
   25680:	d9800117 	ldw	r6,4(sp)
   25684:	d9400017 	ldw	r5,0(sp)
   25688:	300f883a 	mov	r7,r6
   2568c:	8009883a 	mov	r4,r16
   25690:	280d883a 	mov	r6,r5
   25694:	880b883a 	mov	r5,r17
   25698:	dfc00417 	ldw	ra,16(sp)
   2569c:	dc400317 	ldw	r17,12(sp)
   256a0:	dc000217 	ldw	r16,8(sp)
   256a4:	dec00504 	addi	sp,sp,20
   256a8:	0023cb81 	jmpi	23cb8 <__svfscanf_r>

000256ac <__svfscanf>:
   256ac:	00800134 	movhi	r2,4
   256b0:	10a4cf04 	addi	r2,r2,-27844
   256b4:	300f883a 	mov	r7,r6
   256b8:	280d883a 	mov	r6,r5
   256bc:	200b883a 	mov	r5,r4
   256c0:	11000017 	ldw	r4,0(r2)
   256c4:	0023cb81 	jmpi	23cb8 <__svfscanf_r>

000256c8 <_vfscanf_r>:
   256c8:	defffb04 	addi	sp,sp,-20
   256cc:	dc000315 	stw	r16,12(sp)
   256d0:	dfc00415 	stw	ra,16(sp)
   256d4:	2021883a 	mov	r16,r4
   256d8:	20000926 	beq	r4,zero,25700 <_vfscanf_r+0x38>
   256dc:	20800e17 	ldw	r2,56(r4)
   256e0:	1000071e 	bne	r2,zero,25700 <_vfscanf_r+0x38>
   256e4:	d9400015 	stw	r5,0(sp)
   256e8:	d9800115 	stw	r6,4(sp)
   256ec:	d9c00215 	stw	r7,8(sp)
   256f0:	00277200 	call	27720 <__sinit>
   256f4:	d9c00217 	ldw	r7,8(sp)
   256f8:	d9800117 	ldw	r6,4(sp)
   256fc:	d9400017 	ldw	r5,0(sp)
   25700:	8009883a 	mov	r4,r16
   25704:	dfc00417 	ldw	ra,16(sp)
   25708:	dc000317 	ldw	r16,12(sp)
   2570c:	dec00504 	addi	sp,sp,20
   25710:	0023cb81 	jmpi	23cb8 <__svfscanf_r>

00025714 <__swsetup_r>:
   25714:	00800134 	movhi	r2,4
   25718:	defffd04 	addi	sp,sp,-12
   2571c:	10a4cf04 	addi	r2,r2,-27844
   25720:	dc400115 	stw	r17,4(sp)
   25724:	2023883a 	mov	r17,r4
   25728:	11000017 	ldw	r4,0(r2)
   2572c:	dc000015 	stw	r16,0(sp)
   25730:	dfc00215 	stw	ra,8(sp)
   25734:	2821883a 	mov	r16,r5
   25738:	20000226 	beq	r4,zero,25744 <__swsetup_r+0x30>
   2573c:	20800e17 	ldw	r2,56(r4)
   25740:	10003126 	beq	r2,zero,25808 <__swsetup_r+0xf4>
   25744:	8080030b 	ldhu	r2,12(r16)
   25748:	10c0020c 	andi	r3,r2,8
   2574c:	1009883a 	mov	r4,r2
   25750:	18000f26 	beq	r3,zero,25790 <__swsetup_r+0x7c>
   25754:	80c00417 	ldw	r3,16(r16)
   25758:	18001526 	beq	r3,zero,257b0 <__swsetup_r+0x9c>
   2575c:	1100004c 	andi	r4,r2,1
   25760:	20001c1e 	bne	r4,zero,257d4 <__swsetup_r+0xc0>
   25764:	1080008c 	andi	r2,r2,2
   25768:	1000291e 	bne	r2,zero,25810 <__swsetup_r+0xfc>
   2576c:	80800517 	ldw	r2,20(r16)
   25770:	80800215 	stw	r2,8(r16)
   25774:	18001c26 	beq	r3,zero,257e8 <__swsetup_r+0xd4>
   25778:	0005883a 	mov	r2,zero
   2577c:	dfc00217 	ldw	ra,8(sp)
   25780:	dc400117 	ldw	r17,4(sp)
   25784:	dc000017 	ldw	r16,0(sp)
   25788:	dec00304 	addi	sp,sp,12
   2578c:	f800283a 	ret
   25790:	2080040c 	andi	r2,r4,16
   25794:	10002e26 	beq	r2,zero,25850 <__swsetup_r+0x13c>
   25798:	2080010c 	andi	r2,r4,4
   2579c:	10001e1e 	bne	r2,zero,25818 <__swsetup_r+0x104>
   257a0:	80c00417 	ldw	r3,16(r16)
   257a4:	20800214 	ori	r2,r4,8
   257a8:	8080030d 	sth	r2,12(r16)
   257ac:	183feb1e 	bne	r3,zero,2575c <_gp+0xfffe4424>
   257b0:	1100a00c 	andi	r4,r2,640
   257b4:	01408004 	movi	r5,512
   257b8:	217fe826 	beq	r4,r5,2575c <_gp+0xfffe4424>
   257bc:	800b883a 	mov	r5,r16
   257c0:	8809883a 	mov	r4,r17
   257c4:	00285700 	call	28570 <__smakebuf_r>
   257c8:	8080030b 	ldhu	r2,12(r16)
   257cc:	80c00417 	ldw	r3,16(r16)
   257d0:	003fe206 	br	2575c <_gp+0xfffe4424>
   257d4:	80800517 	ldw	r2,20(r16)
   257d8:	80000215 	stw	zero,8(r16)
   257dc:	0085c83a 	sub	r2,zero,r2
   257e0:	80800615 	stw	r2,24(r16)
   257e4:	183fe41e 	bne	r3,zero,25778 <_gp+0xfffe4440>
   257e8:	80c0030b 	ldhu	r3,12(r16)
   257ec:	0005883a 	mov	r2,zero
   257f0:	1900200c 	andi	r4,r3,128
   257f4:	203fe126 	beq	r4,zero,2577c <_gp+0xfffe4444>
   257f8:	18c01014 	ori	r3,r3,64
   257fc:	80c0030d 	sth	r3,12(r16)
   25800:	00bfffc4 	movi	r2,-1
   25804:	003fdd06 	br	2577c <_gp+0xfffe4444>
   25808:	00277200 	call	27720 <__sinit>
   2580c:	003fcd06 	br	25744 <_gp+0xfffe440c>
   25810:	0005883a 	mov	r2,zero
   25814:	003fd606 	br	25770 <_gp+0xfffe4438>
   25818:	81400c17 	ldw	r5,48(r16)
   2581c:	28000626 	beq	r5,zero,25838 <__swsetup_r+0x124>
   25820:	80801004 	addi	r2,r16,64
   25824:	28800326 	beq	r5,r2,25834 <__swsetup_r+0x120>
   25828:	8809883a 	mov	r4,r17
   2582c:	0027b040 	call	27b04 <_free_r>
   25830:	8100030b 	ldhu	r4,12(r16)
   25834:	80000c15 	stw	zero,48(r16)
   25838:	80c00417 	ldw	r3,16(r16)
   2583c:	00bff6c4 	movi	r2,-37
   25840:	1108703a 	and	r4,r2,r4
   25844:	80000115 	stw	zero,4(r16)
   25848:	80c00015 	stw	r3,0(r16)
   2584c:	003fd506 	br	257a4 <_gp+0xfffe446c>
   25850:	00800244 	movi	r2,9
   25854:	88800015 	stw	r2,0(r17)
   25858:	20801014 	ori	r2,r4,64
   2585c:	8080030d 	sth	r2,12(r16)
   25860:	00bfffc4 	movi	r2,-1
   25864:	003fc506 	br	2577c <_gp+0xfffe4444>

00025868 <quorem>:
   25868:	defff204 	addi	sp,sp,-56
   2586c:	ddc00b15 	stw	r23,44(sp)
   25870:	20800417 	ldw	r2,16(r4)
   25874:	2dc00417 	ldw	r23,16(r5)
   25878:	dfc00d15 	stw	ra,52(sp)
   2587c:	df000c15 	stw	fp,48(sp)
   25880:	dd800a15 	stw	r22,40(sp)
   25884:	dd400915 	stw	r21,36(sp)
   25888:	dd000815 	stw	r20,32(sp)
   2588c:	dcc00715 	stw	r19,28(sp)
   25890:	dc800615 	stw	r18,24(sp)
   25894:	dc400515 	stw	r17,20(sp)
   25898:	dc000415 	stw	r16,16(sp)
